---
triple:          'arm64-apple-darwin'
binary-path:     '/Users/nathanielhayman/work/healpix_cuda/src/register_alternate'
relocations:
  - { offsetInCU: 0x26, offset: 0x26, size: 0x8, addend: 0x0, symName: _stbi_failure_reason, symObjAddr: 0x0, symBinAddr: 0x100000AEC, symSize: 0x24 }
  - { offsetInCU: 0x58, offset: 0x58, size: 0x8, addend: 0x0, symName: __ZL36stbi__vertically_flip_on_load_global, symObjAddr: 0x3B2D8, symBinAddr: 0x10002C158, symSize: 0x0 }
  - { offsetInCU: 0x79, offset: 0x79, size: 0x8, addend: 0x0, symName: __ZL21stbi__stdio_callbacks, symObjAddr: 0x1A458, symBinAddr: 0x10002C010, symSize: 0x0 }
  - { offsetInCU: 0x101, offset: 0x101, size: 0x8, addend: 0x0, symName: __ZL22stbi__check_png_headerP13stbi__context, symObjAddr: 0x761C, symBinAddr: 0x100008108, symSize: 0x98 }
  - { offsetInCU: 0x12C, offset: 0x12C, size: 0x8, addend: 0x0, symName: __ZZL22stbi__check_png_headerP13stbi__contextE7png_sig, symObjAddr: 0x1A4D8, symBinAddr: 0x100027158, symSize: 0x0 }
  - { offsetInCU: 0x178, offset: 0x178, size: 0x8, addend: 0x0, symName: __ZL20stbi__parse_png_fileP9stbi__pngii, symObjAddr: 0x7B38, symBinAddr: 0x100008624, symSize: 0xEEC }
  - { offsetInCU: 0x1A3, offset: 0x1A3, size: 0x8, addend: 0x0, symName: __ZZL20stbi__parse_png_fileP9stbi__pngiiE13invalid_chunk, symObjAddr: 0x1A470, symBinAddr: 0x10002C028, symSize: 0x0 }
  - { offsetInCU: 0x38B, offset: 0x38B, size: 0x8, addend: 0x0, symName: __ZL23stbi__depth_scale_table, symObjAddr: 0x1A4E0, symBinAddr: 0x100027160, symSize: 0x0 }
  - { offsetInCU: 0x3B1, offset: 0x3B1, size: 0x8, addend: 0x0, symName: __ZL16first_row_filter, symObjAddr: 0x1A489, symBinAddr: 0x10002C041, symSize: 0x0 }
  - { offsetInCU: 0x3CA, offset: 0x3CA, size: 0x8, addend: 0x0, symName: __ZL17stbi__shiftsignedjii, symObjAddr: 0xC8FC, symBinAddr: 0x10000D3E8, symSize: 0x144 }
  - { offsetInCU: 0x3F5, offset: 0x3F5, size: 0x8, addend: 0x0, symName: __ZZL17stbi__shiftsignedjiiE9mul_table, symObjAddr: 0x1A490, symBinAddr: 0x10002C048, symSize: 0x0 }
  - { offsetInCU: 0x40B, offset: 0x40B, size: 0x8, addend: 0x0, symName: __ZZL17stbi__shiftsignedjiiE11shift_table, symObjAddr: 0x1A4B4, symBinAddr: 0x10002C06C, symSize: 0x0 }
  - { offsetInCU: 0x455, offset: 0x455, size: 0x8, addend: 0x0, symName: __ZL20stbi__process_markerP10stbi__jpegi, symObjAddr: 0xFDE0, symBinAddr: 0x1000108CC, symSize: 0x844 }
  - { offsetInCU: 0x480, offset: 0x480, size: 0x8, addend: 0x0, symName: __ZZL20stbi__process_markerP10stbi__jpegiE3tag, symObjAddr: 0x1A5AB, symBinAddr: 0x10002722B, symSize: 0x0 }
  - { offsetInCU: 0x496, offset: 0x496, size: 0x8, addend: 0x0, symName: __ZZL20stbi__process_markerP10stbi__jpegiE3tag_0, symObjAddr: 0x1A5B0, symBinAddr: 0x100027230, symSize: 0x0 }
  - { offsetInCU: 0x627, offset: 0x627, size: 0x8, addend: 0x0, symName: __ZL19stbi__jpeg_dezigzag, symObjAddr: 0x1A55C, symBinAddr: 0x1000271DC, symSize: 0x0 }
  - { offsetInCU: 0x640, offset: 0x640, size: 0x8, addend: 0x0, symName: __ZL26stbi__process_frame_headerP10stbi__jpegi, symObjAddr: 0x10624, symBinAddr: 0x100011110, symSize: 0xC44 }
  - { offsetInCU: 0x66B, offset: 0x66B, size: 0x8, addend: 0x0, symName: __ZZL26stbi__process_frame_headerP10stbi__jpegiE3rgb, symObjAddr: 0x1A5B6, symBinAddr: 0x100027236, symSize: 0x0 }
  - { offsetInCU: 0x724, offset: 0x724, size: 0x8, addend: 0x0, symName: __ZL11stbi__bmask, symObjAddr: 0x1A5BC, symBinAddr: 0x10002723C, symSize: 0x0 }
  - { offsetInCU: 0x766, offset: 0x766, size: 0x8, addend: 0x0, symName: __ZL11stbi__jbias, symObjAddr: 0x1A600, symBinAddr: 0x100027280, symSize: 0x0 }
  - { offsetInCU: 0x791, offset: 0x791, size: 0x8, addend: 0x0, symName: __ZL15stbi__l2h_gamma, symObjAddr: 0x1A448, symBinAddr: 0x10002C000, symSize: 0x0 }
  - { offsetInCU: 0x7B2, offset: 0x7B2, size: 0x8, addend: 0x0, symName: __ZL15stbi__l2h_scale, symObjAddr: 0x1A44C, symBinAddr: 0x10002C004, symSize: 0x0 }
  - { offsetInCU: 0x7CC, offset: 0x7CC, size: 0x8, addend: 0x0, symName: __ZL17stbi__h2l_gamma_i, symObjAddr: 0x1A450, symBinAddr: 0x10002C008, symSize: 0x0 }
  - { offsetInCU: 0x7E6, offset: 0x7E6, size: 0x8, addend: 0x0, symName: __ZL17stbi__h2l_scale_i, symObjAddr: 0x1A454, symBinAddr: 0x10002C00C, symSize: 0x0 }
  - { offsetInCU: 0x800, offset: 0x800, size: 0x8, addend: 0x0, symName: __ZL21stbi__zdefault_length, symObjAddr: 0x1A640, symBinAddr: 0x1000272C0, symSize: 0x0 }
  - { offsetInCU: 0x827, offset: 0x827, size: 0x8, addend: 0x0, symName: __ZL23stbi__zdefault_distance, symObjAddr: 0x1A760, symBinAddr: 0x1000273E0, symSize: 0x0 }
  - { offsetInCU: 0x840, offset: 0x840, size: 0x8, addend: 0x0, symName: __ZL27stbi__compute_huffman_codesP10stbi__zbuf, symObjAddr: 0x17914, symBinAddr: 0x100018400, symSize: 0x3D0 }
  - { offsetInCU: 0x86B, offset: 0x86B, size: 0x8, addend: 0x0, symName: __ZZL27stbi__compute_huffman_codesP10stbi__zbufE15length_dezigzag, symObjAddr: 0x1A780, symBinAddr: 0x100027400, symSize: 0x0 }
  - { offsetInCU: 0x976, offset: 0x976, size: 0x8, addend: 0x0, symName: __ZL18stbi__zlength_base, symObjAddr: 0x1A794, symBinAddr: 0x100027414, symSize: 0x0 }
  - { offsetInCU: 0x99C, offset: 0x99C, size: 0x8, addend: 0x0, symName: __ZL19stbi__zlength_extra, symObjAddr: 0x1A810, symBinAddr: 0x100027490, symSize: 0x0 }
  - { offsetInCU: 0x9B6, offset: 0x9B6, size: 0x8, addend: 0x0, symName: __ZL16stbi__zdist_base, symObjAddr: 0x1A88C, symBinAddr: 0x10002750C, symSize: 0x0 }
  - { offsetInCU: 0x9DC, offset: 0x9DC, size: 0x8, addend: 0x0, symName: __ZL17stbi__zdist_extra, symObjAddr: 0x1A90C, symBinAddr: 0x10002758C, symSize: 0x0 }
  - { offsetInCU: 0x9F6, offset: 0x9F6, size: 0x8, addend: 0x0, symName: __ZL34stbi__unpremultiply_on_load_global, symObjAddr: 0x3B2DC, symBinAddr: 0x10002C15C, symSize: 0x0 }
  - { offsetInCU: 0xA10, offset: 0xA10, size: 0x8, addend: 0x0, symName: __ZL27stbi__de_iphone_flag_global, symObjAddr: 0x3B2E0, symBinAddr: 0x10002C160, symSize: 0x0 }
  - { offsetInCU: 0x1574, offset: 0x1574, size: 0x8, addend: 0x0, symName: _stbi_failure_reason, symObjAddr: 0x0, symBinAddr: 0x100000AEC, symSize: 0x24 }
  - { offsetInCU: 0x158E, offset: 0x158E, size: 0x8, addend: 0x0, symName: _stbi_image_free, symObjAddr: 0x24, symBinAddr: 0x100000B10, symSize: 0x24 }
  - { offsetInCU: 0x15B4, offset: 0x15B4, size: 0x8, addend: 0x0, symName: _stbi_set_flip_vertically_on_load, symObjAddr: 0x48, symBinAddr: 0x100000B34, symSize: 0x1C }
  - { offsetInCU: 0x15DA, offset: 0x15DA, size: 0x8, addend: 0x0, symName: _stbi_set_flip_vertically_on_load_thread, symObjAddr: 0x64, symBinAddr: 0x100000B50, symSize: 0x4C }
  - { offsetInCU: 0x1600, offset: 0x1600, size: 0x8, addend: 0x0, symName: _stbi_load, symObjAddr: 0xB0, symBinAddr: 0x100000B9C, symSize: 0xB4 }
  - { offsetInCU: 0x1684, offset: 0x1684, size: 0x8, addend: 0x0, symName: __ZL11stbi__fopenPKcS0_, symObjAddr: 0x164, symBinAddr: 0x100000C50, symSize: 0x34 }
  - { offsetInCU: 0x16D0, offset: 0x16D0, size: 0x8, addend: 0x0, symName: __ZL9stbi__errPKc, symObjAddr: 0x198, symBinAddr: 0x100000C84, symSize: 0x38 }
  - { offsetInCU: 0x16FE, offset: 0x16FE, size: 0x8, addend: 0x0, symName: _stbi_load_from_file, symObjAddr: 0x1D0, symBinAddr: 0x100000CBC, symSize: 0xE4 }
  - { offsetInCU: 0x1784, offset: 0x1784, size: 0x8, addend: 0x0, symName: __ZL16stbi__start_fileP13stbi__contextP7__sFILE, symObjAddr: 0x2B4, symBinAddr: 0x100000DA0, symSize: 0x34 }
  - { offsetInCU: 0x17BD, offset: 0x17BD, size: 0x8, addend: 0x0, symName: __ZL31stbi__load_and_postprocess_8bitP13stbi__contextPiS1_S1_i, symObjAddr: 0x2E8, symBinAddr: 0x100000DD4, symSize: 0x1F4 }
  - { offsetInCU: 0x1862, offset: 0x1862, size: 0x8, addend: 0x0, symName: _stbi_load_from_file_16, symObjAddr: 0x4DC, symBinAddr: 0x100000FC8, symSize: 0xE4 }
  - { offsetInCU: 0x18E8, offset: 0x18E8, size: 0x8, addend: 0x0, symName: __ZL32stbi__load_and_postprocess_16bitP13stbi__contextPiS1_S1_i, symObjAddr: 0x5C0, symBinAddr: 0x1000010AC, symSize: 0x1F8 }
  - { offsetInCU: 0x198D, offset: 0x198D, size: 0x8, addend: 0x0, symName: _stbi_load_16, symObjAddr: 0x7B8, symBinAddr: 0x1000012A4, symSize: 0xB4 }
  - { offsetInCU: 0x1A11, offset: 0x1A11, size: 0x8, addend: 0x0, symName: _stbi_load_16_from_memory, symObjAddr: 0x86C, symBinAddr: 0x100001358, symSize: 0xA0 }
  - { offsetInCU: 0x1A97, offset: 0x1A97, size: 0x8, addend: 0x0, symName: __ZL15stbi__start_memP13stbi__contextPKhi, symObjAddr: 0x90C, symBinAddr: 0x1000013F8, symSize: 0x60 }
  - { offsetInCU: 0x1ADF, offset: 0x1ADF, size: 0x8, addend: 0x0, symName: _stbi_load_16_from_callbacks, symObjAddr: 0x96C, symBinAddr: 0x100001458, symSize: 0xA0 }
  - { offsetInCU: 0x1B65, offset: 0x1B65, size: 0x8, addend: 0x0, symName: __ZL21stbi__start_callbacksP13stbi__contextP17stbi_io_callbacksPv, symObjAddr: 0xA0C, symBinAddr: 0x1000014F8, symSize: 0x9C }
  - { offsetInCU: 0x1BAD, offset: 0x1BAD, size: 0x8, addend: 0x0, symName: _stbi_load_from_memory, symObjAddr: 0xAA8, symBinAddr: 0x100001594, symSize: 0xA0 }
  - { offsetInCU: 0x1C33, offset: 0x1C33, size: 0x8, addend: 0x0, symName: _stbi_load_from_callbacks, symObjAddr: 0xB48, symBinAddr: 0x100001634, symSize: 0xA0 }
  - { offsetInCU: 0x1CB9, offset: 0x1CB9, size: 0x8, addend: 0x0, symName: _stbi_load_gif_from_memory, symObjAddr: 0xBE8, symBinAddr: 0x1000016D4, symSize: 0x134 }
  - { offsetInCU: 0x1D70, offset: 0x1D70, size: 0x8, addend: 0x0, symName: __ZL19stbi__load_gif_mainP13stbi__contextPPiS1_S1_S1_S1_i, symObjAddr: 0xD1C, symBinAddr: 0x100001808, symSize: 0x500 }
  - { offsetInCU: 0x1EBE, offset: 0x1EBE, size: 0x8, addend: 0x0, symName: __ZL26stbi__vertical_flip_slicesPviiii, symObjAddr: 0x121C, symBinAddr: 0x100001D08, symSize: 0xA4 }
  - { offsetInCU: 0x1F51, offset: 0x1F51, size: 0x8, addend: 0x0, symName: _stbi_loadf_from_memory, symObjAddr: 0x12C0, symBinAddr: 0x100001DAC, symSize: 0xA0 }
  - { offsetInCU: 0x1FD7, offset: 0x1FD7, size: 0x8, addend: 0x0, symName: __ZL16stbi__loadf_mainP13stbi__contextPiS1_S1_i, symObjAddr: 0x1360, symBinAddr: 0x100001E4C, symSize: 0x16C }
  - { offsetInCU: 0x207C, offset: 0x207C, size: 0x8, addend: 0x0, symName: _stbi_loadf_from_callbacks, symObjAddr: 0x14CC, symBinAddr: 0x100001FB8, symSize: 0xA0 }
  - { offsetInCU: 0x2102, offset: 0x2102, size: 0x8, addend: 0x0, symName: _stbi_loadf, symObjAddr: 0x156C, symBinAddr: 0x100002058, symSize: 0xB4 }
  - { offsetInCU: 0x2186, offset: 0x2186, size: 0x8, addend: 0x0, symName: _stbi_loadf_from_file, symObjAddr: 0x1620, symBinAddr: 0x10000210C, symSize: 0x98 }
  - { offsetInCU: 0x21FB, offset: 0x21FB, size: 0x8, addend: 0x0, symName: _stbi_is_hdr_from_memory, symObjAddr: 0x16B8, symBinAddr: 0x1000021A4, symSize: 0x80 }
  - { offsetInCU: 0x2243, offset: 0x2243, size: 0x8, addend: 0x0, symName: __ZL14stbi__hdr_testP13stbi__context, symObjAddr: 0x1738, symBinAddr: 0x100002224, symSize: 0x70 }
  - { offsetInCU: 0x2280, offset: 0x2280, size: 0x8, addend: 0x0, symName: _stbi_is_hdr, symObjAddr: 0x17A8, symBinAddr: 0x100002294, symSize: 0x64 }
  - { offsetInCU: 0x22C8, offset: 0x22C8, size: 0x8, addend: 0x0, symName: _stbi_is_hdr_from_file, symObjAddr: 0x180C, symBinAddr: 0x1000022F8, symSize: 0x9C }
  - { offsetInCU: 0x231F, offset: 0x231F, size: 0x8, addend: 0x0, symName: _stbi_is_hdr_from_callbacks, symObjAddr: 0x18A8, symBinAddr: 0x100002394, symSize: 0x80 }
  - { offsetInCU: 0x2367, offset: 0x2367, size: 0x8, addend: 0x0, symName: _stbi_ldr_to_hdr_gamma, symObjAddr: 0x1928, symBinAddr: 0x100002414, symSize: 0x1C }
  - { offsetInCU: 0x238D, offset: 0x238D, size: 0x8, addend: 0x0, symName: _stbi_ldr_to_hdr_scale, symObjAddr: 0x1944, symBinAddr: 0x100002430, symSize: 0x1C }
  - { offsetInCU: 0x23B3, offset: 0x23B3, size: 0x8, addend: 0x0, symName: _stbi_hdr_to_ldr_gamma, symObjAddr: 0x1960, symBinAddr: 0x10000244C, symSize: 0x24 }
  - { offsetInCU: 0x23D9, offset: 0x23D9, size: 0x8, addend: 0x0, symName: _stbi_hdr_to_ldr_scale, symObjAddr: 0x1984, symBinAddr: 0x100002470, symSize: 0x24 }
  - { offsetInCU: 0x23FF, offset: 0x23FF, size: 0x8, addend: 0x0, symName: _stbi_zlib_decode_malloc_guesssize, symObjAddr: 0x19A8, symBinAddr: 0x100002494, symSize: 0x138 }
  - { offsetInCU: 0x2474, offset: 0x2474, size: 0x8, addend: 0x0, symName: __ZL12stbi__mallocm, symObjAddr: 0x1AE0, symBinAddr: 0x1000025CC, symSize: 0x24 }
  - { offsetInCU: 0x24A2, offset: 0x24A2, size: 0x8, addend: 0x0, symName: __ZL13stbi__do_zlibP10stbi__zbufPciii, symObjAddr: 0x1B04, symBinAddr: 0x1000025F0, symSize: 0x70 }
  - { offsetInCU: 0x250C, offset: 0x250C, size: 0x8, addend: 0x0, symName: _stbi_zlib_decode_malloc, symObjAddr: 0x1B74, symBinAddr: 0x100002660, symSize: 0x38 }
  - { offsetInCU: 0x2554, offset: 0x2554, size: 0x8, addend: 0x0, symName: _stbi_zlib_decode_malloc_guesssize_headerflag, symObjAddr: 0x1BAC, symBinAddr: 0x100002698, symSize: 0x13C }
  - { offsetInCU: 0x25D9, offset: 0x25D9, size: 0x8, addend: 0x0, symName: _stbi_zlib_decode_buffer, symObjAddr: 0x1CE8, symBinAddr: 0x1000027D4, symSize: 0xE8 }
  - { offsetInCU: 0x263F, offset: 0x263F, size: 0x8, addend: 0x0, symName: _stbi_zlib_decode_noheader_malloc, symObjAddr: 0x1DD0, symBinAddr: 0x1000028BC, symSize: 0x134 }
  - { offsetInCU: 0x26A5, offset: 0x26A5, size: 0x8, addend: 0x0, symName: _stbi_zlib_decode_noheader_buffer, symObjAddr: 0x1F04, symBinAddr: 0x1000029F0, symSize: 0xE8 }
  - { offsetInCU: 0x270B, offset: 0x270B, size: 0x8, addend: 0x0, symName: _stbi_set_unpremultiply_on_load, symObjAddr: 0x1FEC, symBinAddr: 0x100002AD8, symSize: 0x1C }
  - { offsetInCU: 0x2731, offset: 0x2731, size: 0x8, addend: 0x0, symName: _stbi_convert_iphone_png_to_rgb, symObjAddr: 0x2008, symBinAddr: 0x100002AF4, symSize: 0x1C }
  - { offsetInCU: 0x2757, offset: 0x2757, size: 0x8, addend: 0x0, symName: _stbi_set_unpremultiply_on_load_thread, symObjAddr: 0x2024, symBinAddr: 0x100002B10, symSize: 0x4C }
  - { offsetInCU: 0x277D, offset: 0x277D, size: 0x8, addend: 0x0, symName: _stbi_convert_iphone_png_to_rgb_thread, symObjAddr: 0x2070, symBinAddr: 0x100002B5C, symSize: 0x4C }
  - { offsetInCU: 0x27A3, offset: 0x27A3, size: 0x8, addend: 0x0, symName: _stbi_info, symObjAddr: 0x20BC, symBinAddr: 0x100002BA8, symSize: 0x94 }
  - { offsetInCU: 0x2818, offset: 0x2818, size: 0x8, addend: 0x0, symName: _stbi_info_from_file, symObjAddr: 0x2150, symBinAddr: 0x100002C3C, symSize: 0xB4 }
  - { offsetInCU: 0x289E, offset: 0x289E, size: 0x8, addend: 0x0, symName: __ZL15stbi__info_mainP13stbi__contextPiS1_S1_, symObjAddr: 0x2204, symBinAddr: 0x100002CF0, symSize: 0x1F0 }
  - { offsetInCU: 0x28F9, offset: 0x28F9, size: 0x8, addend: 0x0, symName: _stbi_is_16_bit, symObjAddr: 0x23F4, symBinAddr: 0x100002EE0, symSize: 0x7C }
  - { offsetInCU: 0x2941, offset: 0x2941, size: 0x8, addend: 0x0, symName: _stbi_is_16_bit_from_file, symObjAddr: 0x2470, symBinAddr: 0x100002F5C, symSize: 0x9C }
  - { offsetInCU: 0x2998, offset: 0x2998, size: 0x8, addend: 0x0, symName: __ZL16stbi__is_16_mainP13stbi__context, symObjAddr: 0x250C, symBinAddr: 0x100002FF8, symSize: 0x94 }
  - { offsetInCU: 0x29C6, offset: 0x29C6, size: 0x8, addend: 0x0, symName: _stbi_info_from_memory, symObjAddr: 0x25A0, symBinAddr: 0x10000308C, symSize: 0x98 }
  - { offsetInCU: 0x2A3B, offset: 0x2A3B, size: 0x8, addend: 0x0, symName: _stbi_info_from_callbacks, symObjAddr: 0x2638, symBinAddr: 0x100003124, symSize: 0x98 }
  - { offsetInCU: 0x2AB0, offset: 0x2AB0, size: 0x8, addend: 0x0, symName: _stbi_is_16_bit_from_memory, symObjAddr: 0x26D0, symBinAddr: 0x1000031BC, symSize: 0x80 }
  - { offsetInCU: 0x2AF8, offset: 0x2AF8, size: 0x8, addend: 0x0, symName: _stbi_is_16_bit_from_callbacks, symObjAddr: 0x2750, symBinAddr: 0x10000323C, symSize: 0x80 }
  - { offsetInCU: 0x2B40, offset: 0x2B40, size: 0x8, addend: 0x0, symName: __ZL16stbi__stdio_readPvPci, symObjAddr: 0x27D0, symBinAddr: 0x1000032BC, symSize: 0x38 }
  - { offsetInCU: 0x2B8C, offset: 0x2B8C, size: 0x8, addend: 0x0, symName: __ZL16stbi__stdio_skipPvi, symObjAddr: 0x2808, symBinAddr: 0x1000032F4, symSize: 0x60 }
  - { offsetInCU: 0x2BD4, offset: 0x2BD4, size: 0x8, addend: 0x0, symName: __ZL15stbi__stdio_eofPv, symObjAddr: 0x2868, symBinAddr: 0x100003354, symSize: 0x5C }
  - { offsetInCU: 0x2C02, offset: 0x2C02, size: 0x8, addend: 0x0, symName: __ZL15stbi__load_mainP13stbi__contextPiS1_S1_iP17stbi__result_infoi, symObjAddr: 0x28C4, symBinAddr: 0x1000033B0, symSize: 0x314 }
  - { offsetInCU: 0x2CA7, offset: 0x2CA7, size: 0x8, addend: 0x0, symName: __ZL21stbi__convert_16_to_8Ptiii, symObjAddr: 0x2BD8, symBinAddr: 0x1000036C4, symSize: 0xF8 }
  - { offsetInCU: 0x2D2F, offset: 0x2D2F, size: 0x8, addend: 0x0, symName: __ZL19stbi__vertical_flipPviii, symObjAddr: 0x2CD0, symBinAddr: 0x1000037BC, symSize: 0x1B0 }
  - { offsetInCU: 0x2E20, offset: 0x2E20, size: 0x8, addend: 0x0, symName: __ZL14stbi__png_testP13stbi__context, symObjAddr: 0x2E80, symBinAddr: 0x10000396C, symSize: 0x34 }
  - { offsetInCU: 0x2E5D, offset: 0x2E5D, size: 0x8, addend: 0x0, symName: __ZL14stbi__png_loadP13stbi__contextPiS1_S1_iP17stbi__result_info, symObjAddr: 0x2EB4, symBinAddr: 0x1000039A0, symSize: 0x54 }
  - { offsetInCU: 0x2EE5, offset: 0x2EE5, size: 0x8, addend: 0x0, symName: __ZL14stbi__bmp_testP13stbi__context, symObjAddr: 0x2F08, symBinAddr: 0x1000039F4, symSize: 0x34 }
  - { offsetInCU: 0x2F22, offset: 0x2F22, size: 0x8, addend: 0x0, symName: __ZL14stbi__bmp_loadP13stbi__contextPiS1_S1_iP17stbi__result_info, symObjAddr: 0x2F3C, symBinAddr: 0x100003A28, symSize: 0x13CC }
  - { offsetInCU: 0x32BE, offset: 0x32BE, size: 0x8, addend: 0x0, symName: __ZL14stbi__gif_testP13stbi__context, symObjAddr: 0x4308, symBinAddr: 0x100004DF4, symSize: 0x34 }
  - { offsetInCU: 0x32FB, offset: 0x32FB, size: 0x8, addend: 0x0, symName: __ZL14stbi__gif_loadP13stbi__contextPiS1_S1_iP17stbi__result_info, symObjAddr: 0x433C, symBinAddr: 0x100004E28, symSize: 0x184 }
  - { offsetInCU: 0x3393, offset: 0x3393, size: 0x8, addend: 0x0, symName: __ZL14stbi__psd_testP13stbi__context, symObjAddr: 0x44C0, symBinAddr: 0x100004FAC, symSize: 0x48 }
  - { offsetInCU: 0x33D0, offset: 0x33D0, size: 0x8, addend: 0x0, symName: __ZL14stbi__psd_loadP13stbi__contextPiS1_S1_iP17stbi__result_infoi, symObjAddr: 0x4508, symBinAddr: 0x100004FF4, symSize: 0xC90 }
  - { offsetInCU: 0x3653, offset: 0x3653, size: 0x8, addend: 0x0, symName: __ZL14stbi__pic_testP13stbi__context, symObjAddr: 0x5198, symBinAddr: 0x100005C84, symSize: 0x34 }
  - { offsetInCU: 0x3690, offset: 0x3690, size: 0x8, addend: 0x0, symName: __ZL14stbi__pic_loadP13stbi__contextPiS1_S1_iP17stbi__result_info, symObjAddr: 0x51CC, symBinAddr: 0x100005CB8, symSize: 0x2F0 }
  - { offsetInCU: 0x3754, offset: 0x3754, size: 0x8, addend: 0x0, symName: __ZL15stbi__jpeg_testP13stbi__context, symObjAddr: 0x54BC, symBinAddr: 0x100005FA8, symSize: 0xA0 }
  - { offsetInCU: 0x37A0, offset: 0x37A0, size: 0x8, addend: 0x0, symName: __ZL15stbi__jpeg_loadP13stbi__contextPiS1_S1_iP17stbi__result_info, symObjAddr: 0x555C, symBinAddr: 0x100006048, symSize: 0xD0 }
  - { offsetInCU: 0x3837, offset: 0x3837, size: 0x8, addend: 0x0, symName: __ZL14stbi__pnm_testP13stbi__context, symObjAddr: 0x562C, symBinAddr: 0x100006118, symSize: 0x90 }
  - { offsetInCU: 0x3883, offset: 0x3883, size: 0x8, addend: 0x0, symName: __ZL14stbi__pnm_loadP13stbi__contextPiS1_S1_iP17stbi__result_info, symObjAddr: 0x56BC, symBinAddr: 0x1000061A8, symSize: 0x384 }
  - { offsetInCU: 0x390B, offset: 0x390B, size: 0x8, addend: 0x0, symName: __ZL14stbi__hdr_loadP13stbi__contextPiS1_S1_iP17stbi__result_info, symObjAddr: 0x5A40, symBinAddr: 0x10000652C, symSize: 0xA40 }
  - { offsetInCU: 0x3AFE, offset: 0x3AFE, size: 0x8, addend: 0x0, symName: __ZL16stbi__hdr_to_ldrPfiii, symObjAddr: 0x6480, symBinAddr: 0x100006F6C, symSize: 0x2D0 }
  - { offsetInCU: 0x3BCF, offset: 0x3BCF, size: 0x8, addend: 0x0, symName: __ZL14stbi__tga_testP13stbi__context, symObjAddr: 0x6750, symBinAddr: 0x10000723C, symSize: 0x2A0 }
  - { offsetInCU: 0x3C3A, offset: 0x3C3A, size: 0x8, addend: 0x0, symName: __ZL14stbi__tga_loadP13stbi__contextPiS1_S1_iP17stbi__result_info, symObjAddr: 0x69F0, symBinAddr: 0x1000074DC, symSize: 0xC2C }
  - { offsetInCU: 0x3F2C, offset: 0x3F2C, size: 0x8, addend: 0x0, symName: __ZL12stbi__rewindP13stbi__context, symObjAddr: 0x76B4, symBinAddr: 0x1000081A0, symSize: 0x30 }
  - { offsetInCU: 0x3F56, offset: 0x3F56, size: 0x8, addend: 0x0, symName: __ZL10stbi__get8P13stbi__context, symObjAddr: 0x76E4, symBinAddr: 0x1000081D0, symSize: 0xA0 }
  - { offsetInCU: 0x3F84, offset: 0x3F84, size: 0x8, addend: 0x0, symName: __ZL19stbi__refill_bufferP13stbi__context, symObjAddr: 0x7784, symBinAddr: 0x100008270, symSize: 0xE4 }
  - { offsetInCU: 0x3FBD, offset: 0x3FBD, size: 0x8, addend: 0x0, symName: __ZL12stbi__do_pngP9stbi__pngPiS1_S1_iP17stbi__result_info, symObjAddr: 0x7868, symBinAddr: 0x100008354, symSize: 0x2D0 }
  - { offsetInCU: 0x4045, offset: 0x4045, size: 0x8, addend: 0x0, symName: __ZL20stbi__convert_formatPhiijj, symObjAddr: 0x8A24, symBinAddr: 0x100009510, symSize: 0x7C8 }
  - { offsetInCU: 0x4108, offset: 0x4108, size: 0x8, addend: 0x0, symName: __ZL22stbi__convert_format16Ptiijj, symObjAddr: 0x9254, symBinAddr: 0x100009D40, symSize: 0x7D4 }
  - { offsetInCU: 0x41CB, offset: 0x41CB, size: 0x8, addend: 0x0, symName: __ZL22stbi__get_chunk_headerP13stbi__context, symObjAddr: 0x9A90, symBinAddr: 0x10000A57C, symSize: 0x38 }
  - { offsetInCU: 0x4208, offset: 0x4208, size: 0x8, addend: 0x0, symName: __ZL10stbi__skipP13stbi__contexti, symObjAddr: 0x9AC8, symBinAddr: 0x10000A5B4, symSize: 0xF8 }
  - { offsetInCU: 0x425E, offset: 0x425E, size: 0x8, addend: 0x0, symName: __ZL13stbi__get32beP13stbi__context, symObjAddr: 0x9BC0, symBinAddr: 0x10000A6AC, symSize: 0x40 }
  - { offsetInCU: 0x429B, offset: 0x429B, size: 0x8, addend: 0x0, symName: __ZL13stbi__get16beP13stbi__context, symObjAddr: 0x9C00, symBinAddr: 0x10000A6EC, symSize: 0x48 }
  - { offsetInCU: 0x42D8, offset: 0x42D8, size: 0x8, addend: 0x0, symName: __ZL10stbi__getnP13stbi__contextPhi, symObjAddr: 0x9C48, symBinAddr: 0x10000A734, symSize: 0x158 }
  - { offsetInCU: 0x436D, offset: 0x436D, size: 0x8, addend: 0x0, symName: __ZL22stbi__create_png_imageP9stbi__pngPhjiiii, symObjAddr: 0x9DA0, symBinAddr: 0x10000A88C, symSize: 0x464 }
  - { offsetInCU: 0x450B, offset: 0x450B, size: 0x8, addend: 0x0, symName: __ZL28stbi__compute_transparency16P9stbi__pngPti, symObjAddr: 0xA204, symBinAddr: 0x10000ACF0, symSize: 0x1F4 }
  - { offsetInCU: 0x4593, offset: 0x4593, size: 0x8, addend: 0x0, symName: __ZL26stbi__compute_transparencyP9stbi__pngPhi, symObjAddr: 0xA3F8, symBinAddr: 0x10000AEE4, symSize: 0x1F4 }
  - { offsetInCU: 0x461B, offset: 0x461B, size: 0x8, addend: 0x0, symName: __ZL15stbi__de_iphoneP9stbi__png, symObjAddr: 0xA5EC, symBinAddr: 0x10000B0D8, symSize: 0x2BC }
  - { offsetInCU: 0x4704, offset: 0x4704, size: 0x8, addend: 0x0, symName: __ZL24stbi__expand_png_paletteP9stbi__pngPhii, symObjAddr: 0xA8A8, symBinAddr: 0x10000B394, symSize: 0x240 }
  - { offsetInCU: 0x47E4, offset: 0x47E4, size: 0x8, addend: 0x0, symName: __ZL26stbi__create_png_image_rawP9stbi__pngPhjijjii, symObjAddr: 0xAAE8, symBinAddr: 0x10000B5D4, symSize: 0xD50 }
  - { offsetInCU: 0x4A3D, offset: 0x4A3D, size: 0x8, addend: 0x0, symName: __ZL17stbi__malloc_mad3iiii, symObjAddr: 0xB850, symBinAddr: 0x10000C33C, symSize: 0x88 }
  - { offsetInCU: 0x4A98, offset: 0x4A98, size: 0x8, addend: 0x0, symName: __ZL21stbi__mad3sizes_validiiii, symObjAddr: 0xB8D8, symBinAddr: 0x10000C3C4, symSize: 0xAC }
  - { offsetInCU: 0x4AF3, offset: 0x4AF3, size: 0x8, addend: 0x0, symName: __ZL21stbi__mad2sizes_validiii, symObjAddr: 0xB984, symBinAddr: 0x10000C470, symSize: 0x74 }
  - { offsetInCU: 0x4B3F, offset: 0x4B3F, size: 0x8, addend: 0x0, symName: __ZL17stbi__malloc_mad2iii, symObjAddr: 0xB9F8, symBinAddr: 0x10000C4E4, symSize: 0x78 }
  - { offsetInCU: 0x4B8B, offset: 0x4B8B, size: 0x8, addend: 0x0, symName: __ZL11stbi__paethiii, symObjAddr: 0xBA70, symBinAddr: 0x10000C55C, symSize: 0x11C }
  - { offsetInCU: 0x4C22, offset: 0x4C22, size: 0x8, addend: 0x0, symName: __ZL30stbi__create_png_alpha_expand8PhS_ji, symObjAddr: 0xBB8C, symBinAddr: 0x10000C678, symSize: 0x1E0 }
  - { offsetInCU: 0x4C88, offset: 0x4C88, size: 0x8, addend: 0x0, symName: __ZL21stbi__mul2sizes_validii, symObjAddr: 0xBD6C, symBinAddr: 0x10000C858, symSize: 0x8C }
  - { offsetInCU: 0x4CC5, offset: 0x4CC5, size: 0x8, addend: 0x0, symName: __ZL20stbi__addsizes_validii, symObjAddr: 0xBDF8, symBinAddr: 0x10000C8E4, symSize: 0x58 }
  - { offsetInCU: 0x4D02, offset: 0x4D02, size: 0x8, addend: 0x0, symName: __ZL15stbi__compute_yiii, symObjAddr: 0xBE50, symBinAddr: 0x10000C93C, symSize: 0x4C }
  - { offsetInCU: 0x4D4E, offset: 0x4D4E, size: 0x8, addend: 0x0, symName: __ZL18stbi__compute_y_16iii, symObjAddr: 0xBE9C, symBinAddr: 0x10000C988, symSize: 0x4C }
  - { offsetInCU: 0x4D9A, offset: 0x4D9A, size: 0x8, addend: 0x0, symName: __ZL18stbi__bmp_test_rawP13stbi__context, symObjAddr: 0xBEE8, symBinAddr: 0x10000C9D4, symSize: 0x130 }
  - { offsetInCU: 0x4DE6, offset: 0x4DE6, size: 0x8, addend: 0x0, symName: __ZL13stbi__get32leP13stbi__context, symObjAddr: 0xC018, symBinAddr: 0x10000CB04, symSize: 0x40 }
  - { offsetInCU: 0x4E23, offset: 0x4E23, size: 0x8, addend: 0x0, symName: __ZL13stbi__get16leP13stbi__context, symObjAddr: 0xC058, symBinAddr: 0x10000CB44, symSize: 0x48 }
  - { offsetInCU: 0x4E60, offset: 0x4E60, size: 0x8, addend: 0x0, symName: __ZL22stbi__bmp_parse_headerP13stbi__contextP14stbi__bmp_data, symObjAddr: 0xC0A0, symBinAddr: 0x10000CB8C, symSize: 0x6B4 }
  - { offsetInCU: 0x4EE6, offset: 0x4EE6, size: 0x8, addend: 0x0, symName: __ZL14stbi__high_bitj, symObjAddr: 0xC754, symBinAddr: 0x10000D240, symSize: 0x128 }
  - { offsetInCU: 0x4F23, offset: 0x4F23, size: 0x8, addend: 0x0, symName: __ZL14stbi__bitcountj, symObjAddr: 0xC87C, symBinAddr: 0x10000D368, symSize: 0x80 }
  - { offsetInCU: 0x4F51, offset: 0x4F51, size: 0x8, addend: 0x0, symName: __ZL27stbi__bmp_set_mask_defaultsP14stbi__bmp_datai, symObjAddr: 0xCA40, symBinAddr: 0x10000D52C, symSize: 0x11C }
  - { offsetInCU: 0x4F8E, offset: 0x4F8E, size: 0x8, addend: 0x0, symName: __ZL18stbi__gif_test_rawP13stbi__context, symObjAddr: 0xCB5C, symBinAddr: 0x10000D648, symSize: 0x108 }
  - { offsetInCU: 0x4FCB, offset: 0x4FCB, size: 0x8, addend: 0x0, symName: __ZL19stbi__gif_load_nextP13stbi__contextP9stbi__gifPiiPh, symObjAddr: 0xCC64, symBinAddr: 0x10000D750, symSize: 0xA60 }
  - { offsetInCU: 0x5117, offset: 0x5117, size: 0x8, addend: 0x0, symName: __ZL16stbi__gif_headerP13stbi__contextP9stbi__gifPii, symObjAddr: 0xD6C4, symBinAddr: 0x10000E1B0, symSize: 0x24C }
  - { offsetInCU: 0x5181, offset: 0x5181, size: 0x8, addend: 0x0, symName: __ZL26stbi__gif_parse_colortableP13stbi__contextPA4_hii, symObjAddr: 0xD910, symBinAddr: 0x10000E3FC, symSize: 0xD8 }
  - { offsetInCU: 0x51E7, offset: 0x51E7, size: 0x8, addend: 0x0, symName: __ZL24stbi__process_gif_rasterP13stbi__contextP9stbi__gif, symObjAddr: 0xD9E8, symBinAddr: 0x10000E4D4, symSize: 0x4E4 }
  - { offsetInCU: 0x52F5, offset: 0x52F5, size: 0x8, addend: 0x0, symName: __ZL18stbi__out_gif_codeP9stbi__gift, symObjAddr: 0xDECC, symBinAddr: 0x10000E9B8, symSize: 0x2B0 }
  - { offsetInCU: 0x535B, offset: 0x535B, size: 0x8, addend: 0x0, symName: __ZL20stbi__psd_decode_rleP13stbi__contextPhi, symObjAddr: 0xE17C, symBinAddr: 0x10000EC68, symSize: 0x1CC }
  - { offsetInCU: 0x53F1, offset: 0x53F1, size: 0x8, addend: 0x0, symName: __ZL19stbi__pic_test_coreP13stbi__context, symObjAddr: 0xE348, symBinAddr: 0x10000EE34, symSize: 0xB4 }
  - { offsetInCU: 0x542E, offset: 0x542E, size: 0x8, addend: 0x0, symName: __ZL13stbi__pic_is4P13stbi__contextPKc, symObjAddr: 0xE3FC, symBinAddr: 0x10000EEE8, symSize: 0x8C }
  - { offsetInCU: 0x547A, offset: 0x547A, size: 0x8, addend: 0x0, symName: __ZL12stbi__at_eofP13stbi__context, symObjAddr: 0xE488, symBinAddr: 0x10000EF74, symSize: 0xB0 }
  - { offsetInCU: 0x54A8, offset: 0x54A8, size: 0x8, addend: 0x0, symName: __ZL19stbi__pic_load_coreP13stbi__contextiiPiPh, symObjAddr: 0xE538, symBinAddr: 0x10000F024, symSize: 0x708 }
  - { offsetInCU: 0x569E, offset: 0x569E, size: 0x8, addend: 0x0, symName: __ZL13stbi__readvalP13stbi__contextiPh, symObjAddr: 0xEC40, symBinAddr: 0x10000F72C, symSize: 0xEC }
  - { offsetInCU: 0x5708, offset: 0x5708, size: 0x8, addend: 0x0, symName: __ZL13stbi__copyvaliPhPKh, symObjAddr: 0xED2C, symBinAddr: 0x10000F818, symSize: 0x98 }
  - { offsetInCU: 0x576E, offset: 0x576E, size: 0x8, addend: 0x0, symName: __ZL16stbi__setup_jpegP10stbi__jpeg, symObjAddr: 0xEDC4, symBinAddr: 0x10000F8B0, symSize: 0x40 }
  - { offsetInCU: 0x5798, offset: 0x5798, size: 0x8, addend: 0x0, symName: __ZL24stbi__decode_jpeg_headerP10stbi__jpegi, symObjAddr: 0xEE04, symBinAddr: 0x10000F8F0, symSize: 0x1FC }
  - { offsetInCU: 0x57E4, offset: 0x57E4, size: 0x8, addend: 0x0, symName: __ZL16stbi__idct_blockPhiPs, symObjAddr: 0xF000, symBinAddr: 0x10000FAEC, symSize: 0x8DC }
  - { offsetInCU: 0x5A4E, offset: 0x5A4E, size: 0x8, addend: 0x0, symName: __ZL22stbi__YCbCr_to_RGB_rowPhPKhS1_S1_ii, symObjAddr: 0xF8DC, symBinAddr: 0x1000103C8, symSize: 0x228 }
  - { offsetInCU: 0x5B3C, offset: 0x5B3C, size: 0x8, addend: 0x0, symName: __ZL23stbi__resample_row_hv_2PhS_S_ii, symObjAddr: 0xFB04, symBinAddr: 0x1000105F0, symSize: 0x194 }
  - { offsetInCU: 0x5BD3, offset: 0x5BD3, size: 0x8, addend: 0x0, symName: __ZL11stbi__clampi, symObjAddr: 0xFC98, symBinAddr: 0x100010784, symSize: 0x74 }
  - { offsetInCU: 0x5C01, offset: 0x5C01, size: 0x8, addend: 0x0, symName: __ZL16stbi__get_markerP10stbi__jpeg, symObjAddr: 0xFD0C, symBinAddr: 0x1000107F8, symSize: 0xD4 }
  - { offsetInCU: 0x5C3E, offset: 0x5C3E, size: 0x8, addend: 0x0, symName: __ZL19stbi__build_huffmanP13stbi__huffmanPi, symObjAddr: 0x11268, symBinAddr: 0x100011D54, symSize: 0x344 }
  - { offsetInCU: 0x5D00, offset: 0x5D00, size: 0x8, addend: 0x0, symName: __ZL19stbi__build_fast_acPsP13stbi__huffman, symObjAddr: 0x115AC, symBinAddr: 0x100012098, symSize: 0x1C0 }
  - { offsetInCU: 0x5DDB, offset: 0x5DDB, size: 0x8, addend: 0x0, symName: __ZL26stbi__free_jpeg_componentsP10stbi__jpegii, symObjAddr: 0x1176C, symBinAddr: 0x100012258, symSize: 0x20C }
  - { offsetInCU: 0x5E36, offset: 0x5E36, size: 0x8, addend: 0x0, symName: __ZL15load_jpeg_imageP10stbi__jpegPiS1_S1_i, symObjAddr: 0x11978, symBinAddr: 0x100012464, symSize: 0x10C8 }
  - { offsetInCU: 0x6072, offset: 0x6072, size: 0x8, addend: 0x0, symName: __ZL23stbi__decode_jpeg_imageP10stbi__jpeg, symObjAddr: 0x12A40, symBinAddr: 0x10001352C, symSize: 0x2D4 }
  - { offsetInCU: 0x60DB, offset: 0x60DB, size: 0x8, addend: 0x0, symName: __ZL18stbi__cleanup_jpegP10stbi__jpeg, symObjAddr: 0x12D14, symBinAddr: 0x100013800, symSize: 0x34 }
  - { offsetInCU: 0x6105, offset: 0x6105, size: 0x8, addend: 0x0, symName: __ZL14resample_row_1PhS_S_ii, symObjAddr: 0x12D48, symBinAddr: 0x100013834, symSize: 0x24 }
  - { offsetInCU: 0x616F, offset: 0x616F, size: 0x8, addend: 0x0, symName: __ZL22stbi__resample_row_v_2PhS_S_ii, symObjAddr: 0x12D6C, symBinAddr: 0x100013858, symSize: 0x90 }
  - { offsetInCU: 0x61E8, offset: 0x61E8, size: 0x8, addend: 0x0, symName: __ZL22stbi__resample_row_h_2PhS_S_ii, symObjAddr: 0x12DFC, symBinAddr: 0x1000138E8, symSize: 0x1D8 }
  - { offsetInCU: 0x628D, offset: 0x628D, size: 0x8, addend: 0x0, symName: __ZL26stbi__resample_row_genericPhS_S_ii, symObjAddr: 0x12FD4, symBinAddr: 0x100013AC0, symSize: 0xBC }
  - { offsetInCU: 0x6315, offset: 0x6315, size: 0x8, addend: 0x0, symName: __ZL15stbi__blinn_8x8hh, symObjAddr: 0x13090, symBinAddr: 0x100013B7C, symSize: 0x3C }
  - { offsetInCU: 0x6361, offset: 0x6361, size: 0x8, addend: 0x0, symName: __ZL25stbi__process_scan_headerP10stbi__jpeg, symObjAddr: 0x130CC, symBinAddr: 0x100013BB8, symSize: 0x4B4 }
  - { offsetInCU: 0x6405, offset: 0x6405, size: 0x8, addend: 0x0, symName: __ZL30stbi__parse_entropy_coded_dataP10stbi__jpeg, symObjAddr: 0x13580, symBinAddr: 0x10001406C, symSize: 0xD14 }
  - { offsetInCU: 0x66D4, offset: 0x66D4, size: 0x8, addend: 0x0, symName: __ZL27stbi__skip_jpeg_junk_at_endP10stbi__jpeg, symObjAddr: 0x14294, symBinAddr: 0x100014D80, symSize: 0xE8 }
  - { offsetInCU: 0x671F, offset: 0x671F, size: 0x8, addend: 0x0, symName: __ZL17stbi__jpeg_finishP10stbi__jpeg, symObjAddr: 0x1437C, symBinAddr: 0x100014E68, symSize: 0x23C }
  - { offsetInCU: 0x67CD, offset: 0x67CD, size: 0x8, addend: 0x0, symName: __ZL16stbi__jpeg_resetP10stbi__jpeg, symObjAddr: 0x145B8, symBinAddr: 0x1000150A4, symSize: 0xD8 }
  - { offsetInCU: 0x67F7, offset: 0x67F7, size: 0x8, addend: 0x0, symName: __ZL23stbi__jpeg_decode_blockP10stbi__jpegPsP13stbi__huffmanS3_S1_iPt, symObjAddr: 0x14690, symBinAddr: 0x10001517C, symSize: 0x430 }
  - { offsetInCU: 0x691A, offset: 0x691A, size: 0x8, addend: 0x0, symName: __ZL24stbi__grow_buffer_unsafeP10stbi__jpeg, symObjAddr: 0x14AC0, symBinAddr: 0x1000155AC, symSize: 0x164 }
  - { offsetInCU: 0x6976, offset: 0x6976, size: 0x8, addend: 0x0, symName: __ZL31stbi__jpeg_decode_block_prog_dcP10stbi__jpegPsP13stbi__huffmani, symObjAddr: 0x14C24, symBinAddr: 0x100015710, symSize: 0x284 }
  - { offsetInCU: 0x69FE, offset: 0x69FE, size: 0x8, addend: 0x0, symName: __ZL31stbi__jpeg_decode_block_prog_acP10stbi__jpegPsP13stbi__huffmanS1_, symObjAddr: 0x14EA8, symBinAddr: 0x100015994, symSize: 0x7AC }
  - { offsetInCU: 0x6B66, offset: 0x6B66, size: 0x8, addend: 0x0, symName: __ZL22stbi__jpeg_huff_decodeP10stbi__jpegP13stbi__huffman, symObjAddr: 0x15654, symBinAddr: 0x100016140, symSize: 0x334 }
  - { offsetInCU: 0x6BED, offset: 0x6BED, size: 0x8, addend: 0x0, symName: __ZL20stbi__extend_receiveP10stbi__jpegi, symObjAddr: 0x15988, symBinAddr: 0x100016474, symSize: 0x13C }
  - { offsetInCU: 0x6C48, offset: 0x6C48, size: 0x8, addend: 0x0, symName: __ZL19stbi__addints_validii, symObjAddr: 0x15AC4, symBinAddr: 0x1000165B0, symSize: 0xC4 }
  - { offsetInCU: 0x6C85, offset: 0x6C85, size: 0x8, addend: 0x0, symName: __ZL22stbi__mul2shorts_validii, symObjAddr: 0x15B88, symBinAddr: 0x100016674, symSize: 0xFC }
  - { offsetInCU: 0x6CC2, offset: 0x6CC2, size: 0x8, addend: 0x0, symName: __ZL18stbi__jpeg_get_bitP10stbi__jpeg, symObjAddr: 0x15C84, symBinAddr: 0x100016770, symSize: 0xB8 }
  - { offsetInCU: 0x6CFF, offset: 0x6CFF, size: 0x8, addend: 0x0, symName: __ZL19stbi__jpeg_get_bitsP10stbi__jpegi, symObjAddr: 0x15D3C, symBinAddr: 0x100016828, symSize: 0x10C }
  - { offsetInCU: 0x6D4B, offset: 0x6D4B, size: 0x8, addend: 0x0, symName: __ZL21stbi__jpeg_dequantizePsPt, symObjAddr: 0x15E48, symBinAddr: 0x100016934, symSize: 0x68 }
  - { offsetInCU: 0x6D93, offset: 0x6D93, size: 0x8, addend: 0x0, symName: __ZL14stbi__pnm_infoP13stbi__contextPiS1_S1_, symObjAddr: 0x15EB0, symBinAddr: 0x10001699C, symSize: 0x23C }
  - { offsetInCU: 0x6E39, offset: 0x6E39, size: 0x8, addend: 0x0, symName: __ZL21stbi__mad4sizes_validiiiii, symObjAddr: 0x160EC, symBinAddr: 0x100016BD8, symSize: 0xEC }
  - { offsetInCU: 0x6EA3, offset: 0x6EA3, size: 0x8, addend: 0x0, symName: __ZL17stbi__malloc_mad4iiiii, symObjAddr: 0x161D8, symBinAddr: 0x100016CC4, symSize: 0x98 }
  - { offsetInCU: 0x6F0D, offset: 0x6F0D, size: 0x8, addend: 0x0, symName: __ZL25stbi__pnm_skip_whitespaceP13stbi__contextPc, symObjAddr: 0x16270, symBinAddr: 0x100016D5C, symSize: 0x138 }
  - { offsetInCU: 0x6F46, offset: 0x6F46, size: 0x8, addend: 0x0, symName: __ZL20stbi__pnm_getintegerP13stbi__contextPc, symObjAddr: 0x163A8, symBinAddr: 0x100016E94, symSize: 0x118 }
  - { offsetInCU: 0x6F92, offset: 0x6F92, size: 0x8, addend: 0x0, symName: __ZL17stbi__pnm_isspacec, symObjAddr: 0x164C0, symBinAddr: 0x100016FAC, symSize: 0xB8 }
  - { offsetInCU: 0x6FC0, offset: 0x6FC0, size: 0x8, addend: 0x0, symName: __ZL17stbi__pnm_isdigitc, symObjAddr: 0x16578, symBinAddr: 0x100017064, symSize: 0x48 }
  - { offsetInCU: 0x6FEE, offset: 0x6FEE, size: 0x8, addend: 0x0, symName: __ZL18stbi__hdr_gettokenP13stbi__contextPc, symObjAddr: 0x165C0, symBinAddr: 0x1000170AC, symSize: 0x124 }
  - { offsetInCU: 0x7049, offset: 0x7049, size: 0x8, addend: 0x0, symName: __ZL17stbi__hdr_convertPfPhi, symObjAddr: 0x166E4, symBinAddr: 0x1000171D0, symSize: 0x1D4 }
  - { offsetInCU: 0x70AE, offset: 0x70AE, size: 0x8, addend: 0x0, symName: __Z5ldexpB8ue170006fi, symObjAddr: 0x168C8, symBinAddr: 0x1000173B4, symSize: 0x2C }
  - { offsetInCU: 0x70EB, offset: 0x70EB, size: 0x8, addend: 0x0, symName: __Z3powB8ue170006ff, symObjAddr: 0x168F4, symBinAddr: 0x1000173E0, symSize: 0x2C }
  - { offsetInCU: 0x7128, offset: 0x7128, size: 0x8, addend: 0x0, symName: __ZL18stbi__tga_get_compiiPi, symObjAddr: 0x16920, symBinAddr: 0x10001740C, symSize: 0xEC }
  - { offsetInCU: 0x7174, offset: 0x7174, size: 0x8, addend: 0x0, symName: __ZL20stbi__tga_read_rgb16P13stbi__contextPh, symObjAddr: 0x16A70, symBinAddr: 0x10001755C, symSize: 0xA8 }
  - { offsetInCU: 0x71F8, offset: 0x71F8, size: 0x8, addend: 0x0, symName: __ZL21stbi__convert_8_to_16Phiii, symObjAddr: 0x16B18, symBinAddr: 0x100017604, symSize: 0x10C }
  - { offsetInCU: 0x7280, offset: 0x7280, size: 0x8, addend: 0x0, symName: __ZL23stbi__float_postprocessPfPiS0_S0_i, symObjAddr: 0x16C24, symBinAddr: 0x100017710, symSize: 0xE0 }
  - { offsetInCU: 0x7303, offset: 0x7303, size: 0x8, addend: 0x0, symName: __ZL16stbi__ldr_to_hdrPhiii, symObjAddr: 0x16D04, symBinAddr: 0x1000177F0, symSize: 0x260 }
  - { offsetInCU: 0x739A, offset: 0x739A, size: 0x8, addend: 0x0, symName: __ZL16stbi__parse_zlibP10stbi__zbufi, symObjAddr: 0x16F64, symBinAddr: 0x100017A50, symSize: 0x1D4 }
  - { offsetInCU: 0x73F5, offset: 0x73F5, size: 0x8, addend: 0x0, symName: __ZL23stbi__parse_zlib_headerP10stbi__zbuf, symObjAddr: 0x17138, symBinAddr: 0x100017C24, symSize: 0x114 }
  - { offsetInCU: 0x7450, offset: 0x7450, size: 0x8, addend: 0x0, symName: __ZL14stbi__zreceiveP10stbi__zbufi, symObjAddr: 0x1724C, symBinAddr: 0x100017D38, symSize: 0x94 }
  - { offsetInCU: 0x749C, offset: 0x749C, size: 0x8, addend: 0x0, symName: __ZL30stbi__parse_uncompressed_blockP10stbi__zbuf, symObjAddr: 0x172E0, symBinAddr: 0x100017DCC, symSize: 0x24C }
  - { offsetInCU: 0x7506, offset: 0x7506, size: 0x8, addend: 0x0, symName: __ZL20stbi__zbuild_huffmanP14stbi__zhuffmanPKhi, symObjAddr: 0x1752C, symBinAddr: 0x100018018, symSize: 0x3E8 }
  - { offsetInCU: 0x7605, offset: 0x7605, size: 0x8, addend: 0x0, symName: __ZL25stbi__parse_huffman_blockP10stbi__zbuf, symObjAddr: 0x17CE4, symBinAddr: 0x1000187D0, symSize: 0x418 }
  - { offsetInCU: 0x76B7, offset: 0x76B7, size: 0x8, addend: 0x0, symName: __ZL11stbi__zget8P10stbi__zbuf, symObjAddr: 0x180FC, symBinAddr: 0x100018BE8, symSize: 0x64 }
  - { offsetInCU: 0x76E5, offset: 0x76E5, size: 0x8, addend: 0x0, symName: __ZL10stbi__zeofP10stbi__zbuf, symObjAddr: 0x18160, symBinAddr: 0x100018C4C, symSize: 0x2C }
  - { offsetInCU: 0x7713, offset: 0x7713, size: 0x8, addend: 0x0, symName: __ZL15stbi__fill_bitsP10stbi__zbuf, symObjAddr: 0x1818C, symBinAddr: 0x100018C78, symSize: 0xB0 }
  - { offsetInCU: 0x773D, offset: 0x773D, size: 0x8, addend: 0x0, symName: __ZL13stbi__zexpandP10stbi__zbufPci, symObjAddr: 0x1823C, symBinAddr: 0x100018D28, symSize: 0x1AC }
  - { offsetInCU: 0x77C5, offset: 0x77C5, size: 0x8, addend: 0x0, symName: __ZL17stbi__bit_reverseii, symObjAddr: 0x183E8, symBinAddr: 0x100018ED4, symSize: 0x70 }
  - { offsetInCU: 0x7802, offset: 0x7802, size: 0x8, addend: 0x0, symName: __ZL18stbi__bitreverse16i, symObjAddr: 0x18458, symBinAddr: 0x100018F44, symSize: 0x98 }
  - { offsetInCU: 0x7830, offset: 0x7830, size: 0x8, addend: 0x0, symName: __ZL21stbi__zhuffman_decodeP10stbi__zbufP14stbi__zhuffman, symObjAddr: 0x184F0, symBinAddr: 0x100018FDC, symSize: 0x130 }
  - { offsetInCU: 0x788B, offset: 0x788B, size: 0x8, addend: 0x0, symName: __ZL30stbi__zhuffman_decode_slowpathP10stbi__zbufP14stbi__zhuffman, symObjAddr: 0x18620, symBinAddr: 0x10001910C, symSize: 0x170 }
  - { offsetInCU: 0x78F5, offset: 0x78F5, size: 0x8, addend: 0x0, symName: __ZL28stbi__load_gif_main_outofmemP9stbi__gifPhPPi, symObjAddr: 0x18790, symBinAddr: 0x10001927C, symSize: 0xC8 }
  - { offsetInCU: 0x7941, offset: 0x7941, size: 0x8, addend: 0x0, symName: __ZL19stbi__hdr_test_coreP13stbi__contextPKc, symObjAddr: 0x18858, symBinAddr: 0x100019344, symSize: 0xA0 }
  - { offsetInCU: 0x798D, offset: 0x798D, size: 0x8, addend: 0x0, symName: __ZL15stbi__jpeg_infoP13stbi__contextPiS1_S1_, symObjAddr: 0x188F8, symBinAddr: 0x1000193E4, symSize: 0xA4 }
  - { offsetInCU: 0x7A06, offset: 0x7A06, size: 0x8, addend: 0x0, symName: __ZL14stbi__png_infoP13stbi__contextPiS1_S1_, symObjAddr: 0x1899C, symBinAddr: 0x100019488, symSize: 0x44 }
  - { offsetInCU: 0x7A70, offset: 0x7A70, size: 0x8, addend: 0x0, symName: __ZL14stbi__gif_infoP13stbi__contextPiS1_S1_, symObjAddr: 0x189E0, symBinAddr: 0x1000194CC, symSize: 0x3C }
  - { offsetInCU: 0x7ACB, offset: 0x7ACB, size: 0x8, addend: 0x0, symName: __ZL14stbi__bmp_infoP13stbi__contextPiS1_S1_, symObjAddr: 0x18A1C, symBinAddr: 0x100019508, symSize: 0x144 }
  - { offsetInCU: 0x7B44, offset: 0x7B44, size: 0x8, addend: 0x0, symName: __ZL14stbi__psd_infoP13stbi__contextPiS1_S1_, symObjAddr: 0x18B60, symBinAddr: 0x10001964C, symSize: 0x1D8 }
  - { offsetInCU: 0x7BCC, offset: 0x7BCC, size: 0x8, addend: 0x0, symName: __ZL14stbi__pic_infoP13stbi__contextPiS1_S1_, symObjAddr: 0x18D38, symBinAddr: 0x100019824, symSize: 0x2E4 }
  - { offsetInCU: 0x7C87, offset: 0x7C87, size: 0x8, addend: 0x0, symName: __ZL14stbi__hdr_infoP13stbi__contextPiS1_S1_, symObjAddr: 0x1901C, symBinAddr: 0x100019B08, symSize: 0x28C }
  - { offsetInCU: 0x7D1F, offset: 0x7D1F, size: 0x8, addend: 0x0, symName: __ZL14stbi__tga_infoP13stbi__contextPiS1_S1_, symObjAddr: 0x192A8, symBinAddr: 0x100019D94, symSize: 0x3AC }
  - { offsetInCU: 0x7DF2, offset: 0x7DF2, size: 0x8, addend: 0x0, symName: __ZL19stbi__jpeg_info_rawP10stbi__jpegPiS1_S1_, symObjAddr: 0x19654, symBinAddr: 0x10001A140, symSize: 0x104 }
  - { offsetInCU: 0x7E4D, offset: 0x7E4D, size: 0x8, addend: 0x0, symName: __ZL18stbi__png_info_rawP9stbi__pngPiS1_S1_, symObjAddr: 0x19758, symBinAddr: 0x10001A244, symSize: 0xF0 }
  - { offsetInCU: 0x7EA8, offset: 0x7EA8, size: 0x8, addend: 0x0, symName: __ZL18stbi__gif_info_rawP13stbi__contextPiS1_S1_, symObjAddr: 0x19848, symBinAddr: 0x10001A334, symSize: 0x100 }
  - { offsetInCU: 0x7F12, offset: 0x7F12, size: 0x8, addend: 0x0, symName: __ZL14stbi__png_is16P13stbi__context, symObjAddr: 0x19948, symBinAddr: 0x10001A434, symSize: 0x84 }
  - { offsetInCU: 0x7F4F, offset: 0x7F4F, size: 0x8, addend: 0x0, symName: __ZL14stbi__psd_is16P13stbi__context, symObjAddr: 0x199CC, symBinAddr: 0x10001A4B8, symSize: 0x104 }
  - { offsetInCU: 0x7F9B, offset: 0x7F9B, size: 0x8, addend: 0x0, symName: __ZL14stbi__pnm_is16P13stbi__context, symObjAddr: 0x19AD0, symBinAddr: 0x10001A5BC, symSize: 0x58 }
  - { offsetInCU: 0x44, offset: 0x8459, size: 0x8, addend: 0x0, symName: __ZN5EigenL4lastE, symObjAddr: 0xF09FE, symBinAddr: 0x10002C164, symSize: 0x0 }
  - { offsetInCU: 0x4E9A, offset: 0xD2AF, size: 0x8, addend: 0x0, symName: __ZN5Eigen8internal22ignore_unused_variableIlEEvRKT_, symObjAddr: 0x2F1C, symBinAddr: 0x10001D530, symSize: 0x10 }
  - { offsetInCU: 0x4F6C, offset: 0xD381, size: 0x8, addend: 0x0, symName: __ZN5Eigen8internal6preduxI19__simd128_float64_tEENS0_15unpacket_traitsIT_E4typeERKS4_, symObjAddr: 0x403C, symBinAddr: 0x10001E650, symSize: 0x50 }
  - { offsetInCU: 0x4FA3, offset: 0xD3B8, size: 0x8, addend: 0x0, symName: __ZN5Eigen8internal4pmulI19__simd128_float64_tEET_RKS3_S5_, symObjAddr: 0x41D4, symBinAddr: 0x10001E7E8, symSize: 0x40 }
  - { offsetInCU: 0x503A, offset: 0xD44F, size: 0x8, addend: 0x0, symName: __ZN5Eigen8internal4paddI19__simd128_float64_tEET_RKS3_S5_, symObjAddr: 0x42B8, symBinAddr: 0x10001E8CC, symSize: 0x40 }
  - { offsetInCU: 0x5080, offset: 0xD495, size: 0x8, addend: 0x0, symName: __ZN5Eigen8internal6ploaduI19__simd128_float64_tEET_PKNS0_15unpacket_traitsIS3_E4typeE, symObjAddr: 0x430C, symBinAddr: 0x10001E920, symSize: 0x28 }
  - { offsetInCU: 0x514A, offset: 0xD55F, size: 0x8, addend: 0x0, symName: __ZN5Eigen8internal28check_static_allocation_sizeIdLi3EEEvv, symObjAddr: 0x5084, symBinAddr: 0x10001F698, symSize: 0x4 }
  - { offsetInCU: 0x5177, offset: 0xD58C, size: 0x8, addend: 0x0, symName: __ZN5Eigen8internal24call_assignment_no_aliasINS_6MatrixIdLi3ELi1ELi0ELi3ELi1EEENS_13CwiseBinaryOpINS0_18scalar_quotient_opIddEEKNS4_INS0_13scalar_sum_opIddEEKS3_S9_EEKNS_14CwiseNullaryOpINS0_18scalar_constant_opIdEES9_EEEENS0_9assign_opIddEEEEvRT_RKT0_RKT1_, symObjAddr: 0x51F8, symBinAddr: 0x10001F80C, symSize: 0x3C }
  - { offsetInCU: 0x524F, offset: 0xD664, size: 0x8, addend: 0x0, symName: __ZN5Eigen8internal18check_for_aliasingINS_6MatrixIdLi3ELi1ELi0ELi3ELi1EEENS_13CwiseBinaryOpINS0_18scalar_quotient_opIddEEKNS4_INS0_13scalar_sum_opIddEEKS3_S9_EEKNS_14CwiseNullaryOpINS0_18scalar_constant_opIdEES9_EEEEEEvRKT_RKT0_, symObjAddr: 0x52A0, symBinAddr: 0x10001F8B4, symSize: 0x14 }
  - { offsetInCU: 0x529A, offset: 0xD6AF, size: 0x8, addend: 0x0, symName: __ZN5Eigen8internal26call_dense_assignment_loopINS_6MatrixIdLi3ELi1ELi0ELi3ELi1EEENS_13CwiseBinaryOpINS0_18scalar_quotient_opIddEEKNS4_INS0_13scalar_sum_opIddEEKS3_S9_EEKNS_14CwiseNullaryOpINS0_18scalar_constant_opIdEES9_EEEENS0_9assign_opIddEEEEvRT_RKT0_RKT1_, symObjAddr: 0x52B4, symBinAddr: 0x10001F8C8, symSize: 0xE0 }
  - { offsetInCU: 0x534F, offset: 0xD764, size: 0x8, addend: 0x0, symName: __ZN5Eigen8internal17resize_if_allowedINS_6MatrixIdLi3ELi1ELi0ELi3ELi1EEENS_13CwiseBinaryOpINS0_18scalar_quotient_opIddEEKNS4_INS0_13scalar_sum_opIddEEKS3_S9_EEKNS_14CwiseNullaryOpINS0_18scalar_constant_opIdEES9_EEEEddEEvRT_RKT0_RKNS0_9assign_opIT1_T2_EE, symObjAddr: 0x53C8, symBinAddr: 0x10001F9DC, symSize: 0xF8 }
  - { offsetInCU: 0x548B, offset: 0xD8A0, size: 0x8, addend: 0x0, symName: __ZN5Eigen8internal7pstoreuId19__simd128_float64_tEEvPT_RKT0_, symObjAddr: 0x5B4C, symBinAddr: 0x100020160, symSize: 0x2C }
  - { offsetInCU: 0x54F3, offset: 0xD908, size: 0x8, addend: 0x0, symName: __ZN5Eigen8internal4pdivI19__simd128_float64_tEET_RKS3_S5_, symObjAddr: 0x5BF8, symBinAddr: 0x10002020C, symSize: 0x40 }
  - { offsetInCU: 0x5539, offset: 0xD94E, size: 0x8, addend: 0x0, symName: __ZN5Eigen8internal5pset1I19__simd128_float64_tEET_RKNS0_15unpacket_traitsIS3_E4typeE, symObjAddr: 0x5C8C, symBinAddr: 0x1000202A0, symSize: 0x44 }
  - { offsetInCU: 0x55A8, offset: 0xD9BD, size: 0x8, addend: 0x0, symName: __ZN5Eigen8internal24call_assignment_no_aliasINS_6MatrixIdLi3ELi1ELi0ELi3ELi1EEENS_13CwiseBinaryOpINS0_13scalar_sum_opIddEEKS3_S7_EENS0_9assign_opIddEEEEvRT_RKT0_RKT1_, symObjAddr: 0x6248, symBinAddr: 0x10002085C, symSize: 0x3C }
  - { offsetInCU: 0x5676, offset: 0xDA8B, size: 0x8, addend: 0x0, symName: __ZN5Eigen8internal18check_for_aliasingINS_6MatrixIdLi3ELi1ELi0ELi3ELi1EEENS_13CwiseBinaryOpINS0_13scalar_sum_opIddEEKS3_S7_EEEEvRKT_RKT0_, symObjAddr: 0x62C4, symBinAddr: 0x1000208D8, symSize: 0x14 }
  - { offsetInCU: 0x56C1, offset: 0xDAD6, size: 0x8, addend: 0x0, symName: __ZN5Eigen8internal26call_dense_assignment_loopINS_6MatrixIdLi3ELi1ELi0ELi3ELi1EEENS_13CwiseBinaryOpINS0_13scalar_sum_opIddEEKS3_S7_EENS0_9assign_opIddEEEEvRT_RKT0_RKT1_, symObjAddr: 0x62D8, symBinAddr: 0x1000208EC, symSize: 0xD8 }
  - { offsetInCU: 0x5775, offset: 0xDB8A, size: 0x8, addend: 0x0, symName: __ZN5Eigen8internal17resize_if_allowedINS_6MatrixIdLi3ELi1ELi0ELi3ELi1EEENS_13CwiseBinaryOpINS0_13scalar_sum_opIddEEKS3_S7_EEddEEvRT_RKT0_RKNS0_9assign_opIT1_T2_EE, symObjAddr: 0x63E4, symBinAddr: 0x1000209F8, symSize: 0xF8 }
  - { offsetInCU: 0x58A7, offset: 0xDCBC, size: 0x8, addend: 0x0, symName: __ZN5Eigen8internal15call_assignmentINS_6MatrixIdLi3ELi1ELi0ELi3ELi1EEES3_EEvRT_RKT0_, symObjAddr: 0x6868, symBinAddr: 0x100020E7C, symSize: 0x50 }
  - { offsetInCU: 0x58F2, offset: 0xDD07, size: 0x8, addend: 0x0, symName: __ZN5Eigen8internal15call_assignmentINS_6MatrixIdLi3ELi1ELi0ELi3ELi1EEES3_NS0_9assign_opIddEEEEvRT_RKT0_RKT1_NS0_9enable_ifIXntsr25evaluator_assume_aliasingIS8_EE5valueEPvE4typeE, symObjAddr: 0x68B8, symBinAddr: 0x100020ECC, symSize: 0x38 }
  - { offsetInCU: 0x5960, offset: 0xDD75, size: 0x8, addend: 0x0, symName: __ZN5Eigen8internal24call_assignment_no_aliasINS_6MatrixIdLi3ELi1ELi0ELi3ELi1EEES3_NS0_9assign_opIddEEEEvRT_RKT0_RKT1_, symObjAddr: 0x68F0, symBinAddr: 0x100020F04, symSize: 0x3C }
  - { offsetInCU: 0x5A2E, offset: 0xDE43, size: 0x8, addend: 0x0, symName: __ZN5Eigen8internal18check_for_aliasingINS_6MatrixIdLi3ELi1ELi0ELi3ELi1EEES3_EEvRKT_RKT0_, symObjAddr: 0x696C, symBinAddr: 0x100020F80, symSize: 0x14 }
  - { offsetInCU: 0x5A79, offset: 0xDE8E, size: 0x8, addend: 0x0, symName: __ZN5Eigen8internal26call_dense_assignment_loopINS_6MatrixIdLi3ELi1ELi0ELi3ELi1EEES3_NS0_9assign_opIddEEEEvRT_RKT0_RKT1_, symObjAddr: 0x6980, symBinAddr: 0x100020F94, symSize: 0xD8 }
  - { offsetInCU: 0x5B2D, offset: 0xDF42, size: 0x8, addend: 0x0, symName: __ZN5Eigen8internal17resize_if_allowedINS_6MatrixIdLi3ELi1ELi0ELi3ELi1EEES3_ddEEvRT_RKT0_RKNS0_9assign_opIT1_T2_EE, symObjAddr: 0x6A58, symBinAddr: 0x10002106C, symSize: 0xF8 }
  - { offsetInCU: 0x5E50, offset: 0xE265, size: 0x8, addend: 0x0, symName: __ZN5Eigen8internal4pmulIdEET_RKS2_S4_, symObjAddr: 0x7994, symBinAddr: 0x100021FA8, symSize: 0x28 }
  - { offsetInCU: 0x5F2B, offset: 0xE340, size: 0x8, addend: 0x0, symName: __ZN5Eigen8internal24call_assignment_no_aliasINS_6MatrixIdLi3ELi1ELi0ELi3ELi1EEENS_13CwiseBinaryOpINS0_18scalar_quotient_opIddEEKS3_KNS_14CwiseNullaryOpINS0_18scalar_constant_opIdEES7_EEEENS0_9assign_opIddEEEEvRT_RKT0_RKT1_, symObjAddr: 0x9110, symBinAddr: 0x100023724, symSize: 0x3C }
  - { offsetInCU: 0x5FF9, offset: 0xE40E, size: 0x8, addend: 0x0, symName: __ZN5Eigen8internal18check_for_aliasingINS_6MatrixIdLi3ELi1ELi0ELi3ELi1EEENS_13CwiseBinaryOpINS0_18scalar_quotient_opIddEEKS3_KNS_14CwiseNullaryOpINS0_18scalar_constant_opIdEES7_EEEEEEvRKT_RKT0_, symObjAddr: 0x918C, symBinAddr: 0x1000237A0, symSize: 0x14 }
  - { offsetInCU: 0x6044, offset: 0xE459, size: 0x8, addend: 0x0, symName: __ZN5Eigen8internal26call_dense_assignment_loopINS_6MatrixIdLi3ELi1ELi0ELi3ELi1EEENS_13CwiseBinaryOpINS0_18scalar_quotient_opIddEEKS3_KNS_14CwiseNullaryOpINS0_18scalar_constant_opIdEES7_EEEENS0_9assign_opIddEEEEvRT_RKT0_RKT1_, symObjAddr: 0x91A0, symBinAddr: 0x1000237B4, symSize: 0xD8 }
  - { offsetInCU: 0x60F8, offset: 0xE50D, size: 0x8, addend: 0x0, symName: __ZN5Eigen8internal17resize_if_allowedINS_6MatrixIdLi3ELi1ELi0ELi3ELi1EEENS_13CwiseBinaryOpINS0_18scalar_quotient_opIddEEKS3_KNS_14CwiseNullaryOpINS0_18scalar_constant_opIdEES7_EEEEddEEvRT_RKT0_RKNS0_9assign_opIT1_T2_EE, symObjAddr: 0x92AC, symBinAddr: 0x1000238C0, symSize: 0xF8 }
  - { offsetInCU: 0x622A, offset: 0xE63F, size: 0x8, addend: 0x0, symName: __ZN5Eigen8internal15call_assignmentINS_6MatrixIdLi3ELi1ELi0ELi3ELi1EEENS_14CwiseNullaryOpINS0_18scalar_constant_opIdEES3_EENS0_13mul_assign_opIddEEEEvRT_RKT0_RKT1_NS0_9enable_ifIXntsr25evaluator_assume_aliasingISC_EE5valueEPvE4typeE, symObjAddr: 0x9B0C, symBinAddr: 0x100024120, symSize: 0x38 }
  - { offsetInCU: 0x6298, offset: 0xE6AD, size: 0x8, addend: 0x0, symName: __ZN5Eigen8internal24call_assignment_no_aliasINS_6MatrixIdLi3ELi1ELi0ELi3ELi1EEENS_14CwiseNullaryOpINS0_18scalar_constant_opIdEES3_EENS0_13mul_assign_opIddEEEEvRT_RKT0_RKT1_, symObjAddr: 0x9BD0, symBinAddr: 0x1000241E4, symSize: 0x3C }
  - { offsetInCU: 0x6366, offset: 0xE77B, size: 0x8, addend: 0x0, symName: __ZN5Eigen8internal18check_for_aliasingINS_6MatrixIdLi3ELi1ELi0ELi3ELi1EEENS_14CwiseNullaryOpINS0_18scalar_constant_opIdEES3_EEEEvRKT_RKT0_, symObjAddr: 0x9C4C, symBinAddr: 0x100024260, symSize: 0x14 }
  - { offsetInCU: 0x63B1, offset: 0xE7C6, size: 0x8, addend: 0x0, symName: __ZN5Eigen8internal26call_dense_assignment_loopINS_6MatrixIdLi3ELi1ELi0ELi3ELi1EEENS_14CwiseNullaryOpINS0_18scalar_constant_opIdEES3_EENS0_13mul_assign_opIddEEEEvRT_RKT0_RKT1_, symObjAddr: 0x9C60, symBinAddr: 0x100024274, symSize: 0xD8 }
  - { offsetInCU: 0x6465, offset: 0xE87A, size: 0x8, addend: 0x0, symName: __ZN5Eigen8internal17resize_if_allowedINS_6MatrixIdLi3ELi1ELi0ELi3ELi1EEENS_14CwiseNullaryOpINS0_18scalar_constant_opIdEES3_EENS0_13mul_assign_opIddEEEEvRT_RKT0_RKT1_, symObjAddr: 0x9D6C, symBinAddr: 0x100024380, symSize: 0xB4 }
  - { offsetInCU: 0x6570, offset: 0xE985, size: 0x8, addend: 0x0, symName: __ZN5Eigen8internal28check_static_allocation_sizeIiLi2EEEvv, symObjAddr: 0xABD0, symBinAddr: 0x1000251E4, symSize: 0x4 }
  - { offsetInCU: 0x67D0, offset: 0xEBE5, size: 0x8, addend: 0x0, symName: __ZN5EigenL6lastp1E, symObjAddr: 0xF09FF, symBinAddr: 0x10002C165, symSize: 0x0 }
  - { offsetInCU: 0x67E9, offset: 0xEBFE, size: 0x8, addend: 0x0, symName: __ZN5EigenL3allE, symObjAddr: 0xF0A02, symBinAddr: 0x10002C168, symSize: 0x0 }
  - { offsetInCU: 0x6802, offset: 0xEC17, size: 0x8, addend: 0x0, symName: __ZN5EigenL3fixILi1EEE, symObjAddr: 0xF0A01, symBinAddr: 0x10002C167, symSize: 0x0 }
  - { offsetInCU: 0x1A1BB, offset: 0x225D0, size: 0x8, addend: 0x0, symName: __ZN5Eigen6numext4realIdEENS_8internal11real_retvalINS2_36global_math_functions_filtering_baseIT_vE4typeEE4typeERKS5_, symObjAddr: 0x350C, symBinAddr: 0x10001DB20, symSize: 0x24 }
  - { offsetInCU: 0x1A1F2, offset: 0x22607, size: 0x8, addend: 0x0, symName: __ZN5Eigen6numext4abs2IdEENS_8internal11abs2_retvalINS2_36global_math_functions_filtering_baseIT_vE4typeEE4typeERKS5_, symObjAddr: 0x4458, symBinAddr: 0x10001EA6C, symSize: 0x24 }
  - { offsetInCU: 0x1A229, offset: 0x2263E, size: 0x8, addend: 0x0, symName: __ZN5Eigen6numext4conjIdEENS_8internal11conj_retvalINS2_36global_math_functions_filtering_baseIT_vE4typeEE4typeERKS5_, symObjAddr: 0x7D3C, symBinAddr: 0x100022350, symSize: 0x24 }
  - { offsetInCU: 0x1D6C4, offset: 0x25AD9, size: 0x8, addend: 0x0, symName: __ZNSt3__13minB8ue170006IdEERKT_S3_S3_, symObjAddr: 0xF3C, symBinAddr: 0x10001B550, symSize: 0x2C }
  - { offsetInCU: 0x1D707, offset: 0x25B1C, size: 0x8, addend: 0x0, symName: __ZNSt3__13minB8ue170006IlEERKT_S3_S3_, symObjAddr: 0x1234, symBinAddr: 0x10001B848, symSize: 0x2C }
  - { offsetInCU: 0x1D74A, offset: 0x25B5F, size: 0x8, addend: 0x0, symName: __ZNSt3__13maxB8ue170006IlEERKT_S3_S3_, symObjAddr: 0x1260, symBinAddr: 0x10001B874, symSize: 0x2C }
  - { offsetInCU: 0x1D78D, offset: 0x25BA2, size: 0x8, addend: 0x0, symName: __ZNSt3__13minB8ue170006IdNS_6__lessIvvEEEERKT_S5_S5_T0_, symObjAddr: 0x2938, symBinAddr: 0x10001CF4C, symSize: 0x54 }
  - { offsetInCU: 0x1D85D, offset: 0x25C72, size: 0x8, addend: 0x0, symName: __ZNSt3__13minB8ue170006IlNS_6__lessIvvEEEERKT_S5_S5_T0_, symObjAddr: 0x29C0, symBinAddr: 0x10001CFD4, symSize: 0x54 }
  - { offsetInCU: 0x1D8B7, offset: 0x25CCC, size: 0x8, addend: 0x0, symName: __ZNSt3__13maxB8ue170006IlNS_6__lessIvvEEEERKT_S5_S5_T0_, symObjAddr: 0x2A48, symBinAddr: 0x10001D05C, symSize: 0x54 }
  - { offsetInCU: 0x1E7F1, offset: 0x26C06, size: 0x8, addend: 0x0, symName: __ZN5Eigen8internal18redux_vec_unrollerINS0_13scalar_sum_opIddEENS0_15redux_evaluatorINS_12CwiseUnaryOpINS0_14scalar_abs2_opIdEEKNS_13CwiseBinaryOpIS3_KNS_6MatrixIdLi3ELi1ELi0ELi3ELi1EEESB_EEEEEELi0ELi1EE3runI19__simd128_float64_tEET_RKSF_RKS3_, symObjAddr: 0x3FB0, symBinAddr: 0x10001E5C4, symSize: 0x30 }
  - { offsetInCU: 0x1EEEE, offset: 0x27303, size: 0x8, addend: 0x0, symName: __ZN5Eigen8internal18redux_vec_unrollerINS0_13scalar_sum_opIddEENS0_15redux_evaluatorINS_13CwiseBinaryOpINS0_22scalar_conj_product_opIddEEKNS_6MatrixIdLi3ELi1ELi0ELi3ELi1EEESA_EEEELi0ELi1EE3runI19__simd128_float64_tEET_RKSC_RKS3_, symObjAddr: 0x76B4, symBinAddr: 0x100021CC8, symSize: 0x30 }
  - { offsetInCU: 0x1EFA4, offset: 0x273B9, size: 0x8, addend: 0x0, symName: __ZN5Eigen8internal18redux_vec_unrollerINS0_13scalar_sum_opIddEENS0_15redux_evaluatorINS_12CwiseUnaryOpINS0_14scalar_abs2_opIdEEKNS_6MatrixIdLi3ELi1ELi0ELi3ELi1EEEEEEELi0ELi1EE3runI19__simd128_float64_tEET_RKSC_RKS3_, symObjAddr: 0x8AB0, symBinAddr: 0x1000230C4, symSize: 0x30 }
  - { offsetInCU: 0x1F30D, offset: 0x27722, size: 0x8, addend: 0x0, symName: __Z3powB8ue170006IdiENSt3__19enable_ifIXaasr3std13is_arithmeticIT_EE5valuesr3std13is_arithmeticIT0_EE5valueENS0_9__promoteIS2_S3_vEEE4type4typeES2_S3_, symObjAddr: 0x384, symBinAddr: 0x10001A998, symSize: 0x38 }
  - { offsetInCU: 0x1F8AA, offset: 0x27CBF, size: 0x8, addend: 0x0, symName: __Z3powB8ue170006IliENSt3__19enable_ifIXaasr3std13is_arithmeticIT_EE5valuesr3std13is_arithmeticIT0_EE5valueENS0_9__promoteIS2_S3_vEEE4type4typeES2_S3_, symObjAddr: 0x284C, symBinAddr: 0x10001CE60, symSize: 0x3C }
  - { offsetInCU: 0x21AA3, offset: 0x29EB8, size: 0x8, addend: 0x0, symName: __ZN5Eigen8symbolic10SymbolExprINS_8internal17symbolic_last_tagEEC1Ev, symObjAddr: 0x0, symBinAddr: 0x10001A614, symSize: 0x2C }
  - { offsetInCU: 0x21ACD, offset: 0x29EE2, size: 0x8, addend: 0x0, symName: __ZNK5Eigen8symbolic8BaseExprINS0_10SymbolExprINS_8internal17symbolic_last_tagEEEEplILi1EEENS0_7AddExprIS5_NS0_9ValueExprINS3_8FixedIntIXT_EEEEEEESB_, symObjAddr: 0x2C, symBinAddr: 0x10001A640, symSize: 0x48 }
  - { offsetInCU: 0x21B07, offset: 0x29F1C, size: 0x8, addend: 0x0, symName: __ZNK5Eigen8internal8FixedIntILi1EEclEv, symObjAddr: 0x74, symBinAddr: 0x10001A688, symSize: 0x10 }
  - { offsetInCU: 0x21B2D, offset: 0x29F42, size: 0x8, addend: 0x0, symName: __ZN5Eigen8internal5all_tC1Ev, symObjAddr: 0x84, symBinAddr: 0x10001A698, symSize: 0x2C }
  - { offsetInCU: 0x21B58, offset: 0x29F6D, size: 0x8, addend: 0x0, symName: __Z7ang2vecPN5Eigen6MatrixIdLi3ELi1ELi0ELi3ELi1EEEPK7angle_t, symObjAddr: 0xB0, symBinAddr: 0x10001A6C4, symSize: 0xC4 }
  - { offsetInCU: 0x21B9D, offset: 0x29FB2, size: 0x8, addend: 0x0, symName: __ZN5Eigen15DenseCoeffsBaseINS_6MatrixIdLi3ELi1ELi0ELi3ELi1EEELi1EEixEl, symObjAddr: 0x174, symBinAddr: 0x10001A788, symSize: 0xA4 }
  - { offsetInCU: 0x21BD3, offset: 0x29FE8, size: 0x8, addend: 0x0, symName: __Z7vec2angP7angle_tPKN5Eigen6MatrixIdLi3ELi1ELi0ELi3ELi1EEE, symObjAddr: 0x218, symBinAddr: 0x10001A82C, symSize: 0xF4 }
  - { offsetInCU: 0x21C09, offset: 0x2A01E, size: 0x8, addend: 0x0, symName: __ZNK5Eigen15DenseCoeffsBaseINS_6MatrixIdLi3ELi1ELi0ELi3ELi1EEELi0EE1zEv, symObjAddr: 0x30C, symBinAddr: 0x10001A920, symSize: 0x28 }
  - { offsetInCU: 0x21C2F, offset: 0x2A044, size: 0x8, addend: 0x0, symName: __ZNK5Eigen15DenseCoeffsBaseINS_6MatrixIdLi3ELi1ELi0ELi3ELi1EEELi0EE1yEv, symObjAddr: 0x334, symBinAddr: 0x10001A948, symSize: 0x28 }
  - { offsetInCU: 0x21C55, offset: 0x2A06A, size: 0x8, addend: 0x0, symName: __ZNK5Eigen15DenseCoeffsBaseINS_6MatrixIdLi3ELi1ELi0ELi3ELi1EEELi0EE1xEv, symObjAddr: 0x35C, symBinAddr: 0x10001A970, symSize: 0x28 }
  - { offsetInCU: 0x21C7B, offset: 0x2A090, size: 0x8, addend: 0x0, symName: __Z7loc2pixdddb, symObjAddr: 0x3BC, symBinAddr: 0x10001A9D0, symSize: 0x358 }
  - { offsetInCU: 0x21DF6, offset: 0x2A20B, size: 0x8, addend: 0x0, symName: __Z3absB8ue170006d, symObjAddr: 0x714, symBinAddr: 0x10001AD28, symSize: 0x18 }
  - { offsetInCU: 0x21E23, offset: 0x2A238, size: 0x8, addend: 0x0, symName: __Z15query_multidiscPKN5Eigen6MatrixIdLi3ELi1ELi0ELi3ELi1EEEiPKdiR9hpbound_t, symObjAddr: 0x72C, symBinAddr: 0x10001AD40, symSize: 0x810 }
  - { offsetInCU: 0x221BF, offset: 0x2A5D4, size: 0x8, addend: 0x0, symName: __Z10ring_aboved, symObjAddr: 0xF68, symBinAddr: 0x10001B57C, symSize: 0xD8 }
  - { offsetInCU: 0x22209, offset: 0x2A61E, size: 0x8, addend: 0x0, symName: __Z6ring2zl, symObjAddr: 0x1040, symBinAddr: 0x10001B654, symSize: 0xB8 }
  - { offsetInCU: 0x22235, offset: 0x2A64A, size: 0x8, addend: 0x0, symName: __Z19get_ring_info_smalllRlS_Rb, symObjAddr: 0x10F8, symBinAddr: 0x10001B70C, symSize: 0x13C }
  - { offsetInCU: 0x222A4, offset: 0x2A6B9, size: 0x8, addend: 0x0, symName: __Z10get_circlePKN5Eigen6MatrixIdLi3ELi1ELi0ELi3ELi1EEEllRS1_Rd, symObjAddr: 0x128C, symBinAddr: 0x10001B8A0, symSize: 0x210 }
  - { offsetInCU: 0x22328, offset: 0x2A73D, size: 0x8, addend: 0x0, symName: __ZNK5Eigen10MatrixBaseINS_6MatrixIdLi3ELi1ELi0ELi3ELi1EEEEplIS2_EEKNS_13CwiseBinaryOpINS_8internal13scalar_sum_opIdNS6_6traitsIT_E6ScalarEEEKS2_KS9_EERKNS0_IS9_EE, symObjAddr: 0x149C, symBinAddr: 0x10001BAB0, symSize: 0x60 }
  - { offsetInCU: 0x22395, offset: 0x2A7AA, size: 0x8, addend: 0x0, symName: __ZNK5Eigen10MatrixBaseINS_13CwiseBinaryOpINS_8internal13scalar_sum_opIddEEKNS_6MatrixIdLi3ELi1ELi0ELi3ELi1EEES7_EEE10normalizedEv, symObjAddr: 0x14FC, symBinAddr: 0x10001BB10, symSize: 0xE4 }
  - { offsetInCU: 0x2242F, offset: 0x2A844, size: 0x8, addend: 0x0, symName: __ZN5Eigen6MatrixIdLi3ELi1ELi0ELi3ELi1EEaSERKS1_, symObjAddr: 0x15E0, symBinAddr: 0x10001BBF4, symSize: 0x2C }
  - { offsetInCU: 0x22464, offset: 0x2A879, size: 0x8, addend: 0x0, symName: __ZNK5Eigen10MatrixBaseINS_6MatrixIdLi3ELi1ELi0ELi3ELi1EEEE3dotIS2_EENS_20ScalarBinaryOpTraitsIdNS_8internal6traitsIT_E6ScalarENS6_17scalar_product_opIdSA_EEE10ReturnTypeERKNS0_IS8_EE, symObjAddr: 0x160C, symBinAddr: 0x10001BC20, symSize: 0x80 }
  - { offsetInCU: 0x224A2, offset: 0x2A8B7, size: 0x8, addend: 0x0, symName: __ZNK5Eigen10MatrixBaseINS_6MatrixIdLi3ELi1ELi0ELi3ELi1EEEEmiIS2_EEKNS_13CwiseBinaryOpINS_8internal20scalar_difference_opIdNS6_6traitsIT_E6ScalarEEEKS2_KS9_EERKNS0_IS9_EE, symObjAddr: 0x168C, symBinAddr: 0x10001BCA0, symSize: 0x60 }
  - { offsetInCU: 0x224E0, offset: 0x2A8F5, size: 0x8, addend: 0x0, symName: __ZNK5Eigen10MatrixBaseINS_13CwiseBinaryOpINS_8internal20scalar_difference_opIddEEKNS_6MatrixIdLi3ELi1ELi0ELi3ELi1EEES7_EEE5crossIS8_EENS9_25cross_product_return_typeIT_E4typeERKNS0_ISC_EE, symObjAddr: 0x16EC, symBinAddr: 0x10001BD00, symSize: 0x1BC }
  - { offsetInCU: 0x2253F, offset: 0x2A954, size: 0x8, addend: 0x0, symName: __ZNK5Eigen10MatrixBaseINS_6MatrixIdLi3ELi1ELi0ELi3ELi1EEEE10normalizedEv, symObjAddr: 0x18A8, symBinAddr: 0x10001BEBC, symSize: 0xA4 }
  - { offsetInCU: 0x225D7, offset: 0x2A9EC, size: 0x8, addend: 0x0, symName: __ZN5Eigen9DenseBaseINS_6MatrixIdLi3ELi1ELi0ELi3ELi1EEEEmLERKd, symObjAddr: 0x194C, symBinAddr: 0x10001BF60, symSize: 0x8C }
  - { offsetInCU: 0x2260D, offset: 0x2AA22, size: 0x8, addend: 0x0, symName: __Z10get_circlePKN5Eigen6MatrixIdLi3ELi1ELi0ELi3ELi1EEElRS1_Rd, symObjAddr: 0x19D8, symBinAddr: 0x10001BFEC, symSize: 0x104 }
  - { offsetInCU: 0x22681, offset: 0x2AA96, size: 0x8, addend: 0x0, symName: __Z12query_squarePK7angle_tR9hpbound_t, symObjAddr: 0x1ADC, symBinAddr: 0x10001C0F0, symSize: 0x3CC }
  - { offsetInCU: 0x22774, offset: 0x2AB89, size: 0x8, addend: 0x0, symName: __ZN5Eigen6MatrixIdLi3ELi1ELi0ELi3ELi1EEC1Ev, symObjAddr: 0x1EA8, symBinAddr: 0x10001C4BC, symSize: 0x2C }
  - { offsetInCU: 0x2279F, offset: 0x2ABB4, size: 0x8, addend: 0x0, symName: __ZNK5Eigen10MatrixBaseINS_6MatrixIdLi3ELi1ELi0ELi3ELi1EEEE5crossIS2_EENS3_25cross_product_return_typeIT_E4typeERKNS0_IS6_EE, symObjAddr: 0x1ED4, symBinAddr: 0x10001C4E8, symSize: 0x1C0 }
  - { offsetInCU: 0x227FC, offset: 0x2AC11, size: 0x8, addend: 0x0, symName: __Z7__stackPdii, symObjAddr: 0x2094, symBinAddr: 0x10001C6A8, symSize: 0x8C }
  - { offsetInCU: 0x22844, offset: 0x2AC59, size: 0x8, addend: 0x0, symName: __Z8stack_hpPdii, symObjAddr: 0x2120, symBinAddr: 0x10001C734, symSize: 0x38 }
  - { offsetInCU: 0x22890, offset: 0x2ACA5, size: 0x8, addend: 0x0, symName: __Z14register_pixelPKhPN5Eigen6MatrixIiLi2ELi1ELi0ELi2ELi1EEEiiP8camera_tPd, symObjAddr: 0x2158, symBinAddr: 0x10001C76C, symSize: 0x424 }
  - { offsetInCU: 0x229A7, offset: 0x2ADBC, size: 0x8, addend: 0x0, symName: __ZN5Eigen15DenseCoeffsBaseINS_6MatrixIiLi2ELi1ELi0ELi2ELi1EEELi1EE1yEv, symObjAddr: 0x257C, symBinAddr: 0x10001CB90, symSize: 0x28 }
  - { offsetInCU: 0x229CD, offset: 0x2ADE2, size: 0x8, addend: 0x0, symName: __ZN5Eigen15DenseCoeffsBaseINS_6MatrixIiLi2ELi1ELi0ELi2ELi1EEELi1EE1xEv, symObjAddr: 0x25A4, symBinAddr: 0x10001CBB8, symSize: 0x28 }
  - { offsetInCU: 0x229F3, offset: 0x2AE08, size: 0x8, addend: 0x0, symName: __Z12wrapping_modIdET_S0_S0_, symObjAddr: 0x25CC, symBinAddr: 0x10001CBE0, symSize: 0x48 }
  - { offsetInCU: 0x22A37, offset: 0x2AE4C, size: 0x8, addend: 0x0, symName: _main, symObjAddr: 0x2614, symBinAddr: 0x10001CC28, symSize: 0x20C }
  - { offsetInCU: 0x22B50, offset: 0x2AF65, size: 0x8, addend: 0x0, symName: __ZN5Eigen6MatrixIiLi2ELi1ELi0ELi2ELi1EEC1Ev, symObjAddr: 0x2820, symBinAddr: 0x10001CE34, symSize: 0x2C }
  - { offsetInCU: 0x22B7A, offset: 0x2AF8F, size: 0x8, addend: 0x0, symName: __ZN5Eigen6MatrixIiLi2ELi1ELi0ELi2ELi1EEC1IiiEERKT_RKT0_, symObjAddr: 0x2888, symBinAddr: 0x10001CE9C, symSize: 0x3C }
  - { offsetInCU: 0x22BD4, offset: 0x2AFE9, size: 0x8, addend: 0x0, symName: __ZN5Eigen6MatrixIiLi2ELi1ELi0ELi2ELi1EEaSEOS1_, symObjAddr: 0x28C4, symBinAddr: 0x10001CED8, symSize: 0x34 }
  - { offsetInCU: 0x22C09, offset: 0x2B01E, size: 0x8, addend: 0x0, symName: __ZN5Eigen8internal8FixedIntILi1EEC1Ev, symObjAddr: 0x28F8, symBinAddr: 0x10001CF0C, symSize: 0x2C }
  - { offsetInCU: 0x22C34, offset: 0x2B049, size: 0x8, addend: 0x0, symName: __ZN5Eigen8internal5all_tC2Ev, symObjAddr: 0x2924, symBinAddr: 0x10001CF38, symSize: 0x14 }
  - { offsetInCU: 0x22C67, offset: 0x2B07C, size: 0x8, addend: 0x0, symName: __ZNKSt3__16__lessIvvEclB8ue170006IddEEbRKT_RKT0_, symObjAddr: 0x298C, symBinAddr: 0x10001CFA0, symSize: 0x34 }
  - { offsetInCU: 0x22CC0, offset: 0x2B0D5, size: 0x8, addend: 0x0, symName: __ZNKSt3__16__lessIvvEclB8ue170006IllEEbRKT_RKT0_, symObjAddr: 0x2A14, symBinAddr: 0x10001D028, symSize: 0x34 }
  - { offsetInCU: 0x22D15, offset: 0x2B12A, size: 0x8, addend: 0x0, symName: __ZN5Eigen8symbolic10SymbolExprINS_8internal17symbolic_last_tagEEC2Ev, symObjAddr: 0x2A9C, symBinAddr: 0x10001D0B0, symSize: 0x14 }
  - { offsetInCU: 0x22D3F, offset: 0x2B154, size: 0x8, addend: 0x0, symName: __ZN5Eigen8internal8FixedIntILi1EEC2Ev, symObjAddr: 0x2AB0, symBinAddr: 0x10001D0C4, symSize: 0x14 }
  - { offsetInCU: 0x22D68, offset: 0x2B17D, size: 0x8, addend: 0x0, symName: __ZNK5Eigen8symbolic8BaseExprINS0_10SymbolExprINS_8internal17symbolic_last_tagEEEE7derivedEv, symObjAddr: 0x2AC4, symBinAddr: 0x10001D0D8, symSize: 0x14 }
  - { offsetInCU: 0x22D8E, offset: 0x2B1A3, size: 0x8, addend: 0x0, symName: __ZN5Eigen8symbolic9ValueExprINS_8internal8FixedIntILi1EEEEC1Ev, symObjAddr: 0x2AD8, symBinAddr: 0x10001D0EC, symSize: 0x2C }
  - { offsetInCU: 0x22DB8, offset: 0x2B1CD, size: 0x8, addend: 0x0, symName: __ZN5Eigen8symbolic7AddExprINS0_10SymbolExprINS_8internal17symbolic_last_tagEEENS0_9ValueExprINS3_8FixedIntILi1EEEEEEC1ERKS5_RKS9_, symObjAddr: 0x2B04, symBinAddr: 0x10001D118, symSize: 0x3C }
  - { offsetInCU: 0x22DFF, offset: 0x2B214, size: 0x8, addend: 0x0, symName: __ZN5Eigen8symbolic9ValueExprINS_8internal8FixedIntILi1EEEEC2Ev, symObjAddr: 0x2B40, symBinAddr: 0x10001D154, symSize: 0x14 }
  - { offsetInCU: 0x22E29, offset: 0x2B23E, size: 0x8, addend: 0x0, symName: __ZN5Eigen8symbolic7AddExprINS0_10SymbolExprINS_8internal17symbolic_last_tagEEENS0_9ValueExprINS3_8FixedIntILi1EEEEEEC2ERKS5_RKS9_, symObjAddr: 0x2B54, symBinAddr: 0x10001D168, symSize: 0x1C }
  - { offsetInCU: 0x22E6E, offset: 0x2B283, size: 0x8, addend: 0x0, symName: __ZNK5Eigen9EigenBaseINS_6MatrixIdLi3ELi1ELi0ELi3ELi1EEEE4sizeEv, symObjAddr: 0x2B70, symBinAddr: 0x10001D184, symSize: 0x44 }
  - { offsetInCU: 0x22E94, offset: 0x2B2A9, size: 0x8, addend: 0x0, symName: __ZN5Eigen15DenseCoeffsBaseINS_6MatrixIdLi3ELi1ELi0ELi3ELi1EEELi1EE8coeffRefEl, symObjAddr: 0x2BB4, symBinAddr: 0x10001D1C8, symSize: 0x78 }
  - { offsetInCU: 0x22EC9, offset: 0x2B2DE, size: 0x8, addend: 0x0, symName: __ZNK5Eigen9EigenBaseINS_6MatrixIdLi3ELi1ELi0ELi3ELi1EEEE4rowsEv, symObjAddr: 0x2C2C, symBinAddr: 0x10001D240, symSize: 0x38 }
  - { offsetInCU: 0x22EEF, offset: 0x2B304, size: 0x8, addend: 0x0, symName: __ZNK5Eigen9EigenBaseINS_6MatrixIdLi3ELi1ELi0ELi3ELi1EEEE4colsEv, symObjAddr: 0x2C64, symBinAddr: 0x10001D278, symSize: 0x28 }
  - { offsetInCU: 0x22F15, offset: 0x2B32A, size: 0x8, addend: 0x0, symName: __ZNK5Eigen9EigenBaseINS_6MatrixIdLi3ELi1ELi0ELi3ELi1EEEE7derivedEv, symObjAddr: 0x2C8C, symBinAddr: 0x10001D2A0, symSize: 0x14 }
  - { offsetInCU: 0x22F3B, offset: 0x2B350, size: 0x8, addend: 0x0, symName: __ZNK5Eigen15PlainObjectBaseINS_6MatrixIdLi3ELi1ELi0ELi3ELi1EEEE4rowsEv, symObjAddr: 0x2CAC, symBinAddr: 0x10001D2C0, symSize: 0x20 }
  - { offsetInCU: 0x22F62, offset: 0x2B377, size: 0x8, addend: 0x0, symName: __ZN5Eigen12DenseStorageIdLi3ELi3ELi1ELi0EE4rowsEv, symObjAddr: 0x2CCC, symBinAddr: 0x10001D2E0, symSize: 0x8 }
  - { offsetInCU: 0x22F75, offset: 0x2B38A, size: 0x8, addend: 0x0, symName: __ZNK5Eigen15PlainObjectBaseINS_6MatrixIdLi3ELi1ELi0ELi3ELi1EEEE4colsEv, symObjAddr: 0x2CD4, symBinAddr: 0x10001D2E8, symSize: 0x20 }
  - { offsetInCU: 0x22F9C, offset: 0x2B3B1, size: 0x8, addend: 0x0, symName: __ZN5Eigen12DenseStorageIdLi3ELi3ELi1ELi0EE4colsEv, symObjAddr: 0x2CF4, symBinAddr: 0x10001D308, symSize: 0x8 }
  - { offsetInCU: 0x22FAF, offset: 0x2B3C4, size: 0x8, addend: 0x0, symName: __ZN5Eigen9EigenBaseINS_6MatrixIdLi3ELi1ELi0ELi3ELi1EEEE7derivedEv, symObjAddr: 0x2CFC, symBinAddr: 0x10001D310, symSize: 0x14 }
  - { offsetInCU: 0x22FD5, offset: 0x2B3EA, size: 0x8, addend: 0x0, symName: __ZN5Eigen8internal9evaluatorINS_6MatrixIdLi3ELi1ELi0ELi3ELi1EEEEC1ERKS3_, symObjAddr: 0x2D10, symBinAddr: 0x10001D324, symSize: 0x34 }
  - { offsetInCU: 0x2300E, offset: 0x2B423, size: 0x8, addend: 0x0, symName: __ZN5Eigen8internal9evaluatorINS_15PlainObjectBaseINS_6MatrixIdLi3ELi1ELi0ELi3ELi1EEEEEE8coeffRefEl, symObjAddr: 0x2D44, symBinAddr: 0x10001D358, symSize: 0x24 }
  - { offsetInCU: 0x23043, offset: 0x2B458, size: 0x8, addend: 0x0, symName: __ZN5Eigen8internal9evaluatorINS_6MatrixIdLi3ELi1ELi0ELi3ELi1EEEED1Ev, symObjAddr: 0x2D68, symBinAddr: 0x10001D37C, symSize: 0x2C }
  - { offsetInCU: 0x2306F, offset: 0x2B484, size: 0x8, addend: 0x0, symName: __ZN5Eigen8internal9evaluatorINS_6MatrixIdLi3ELi1ELi0ELi3ELi1EEEEC2ERKS3_, symObjAddr: 0x2D94, symBinAddr: 0x10001D3A8, symSize: 0x34 }
  - { offsetInCU: 0x230A8, offset: 0x2B4BD, size: 0x8, addend: 0x0, symName: __ZN5Eigen8internal9evaluatorINS_15PlainObjectBaseINS_6MatrixIdLi3ELi1ELi0ELi3ELi1EEEEEEC2ERKS5_, symObjAddr: 0x2DC8, symBinAddr: 0x10001D3DC, symSize: 0x78 }
  - { offsetInCU: 0x230E1, offset: 0x2B4F6, size: 0x8, addend: 0x0, symName: __ZN5Eigen8internal14evaluator_baseINS_6MatrixIdLi3ELi1ELi0ELi3ELi1EEEEC2Ev, symObjAddr: 0x2E40, symBinAddr: 0x10001D454, symSize: 0x14 }
  - { offsetInCU: 0x2310A, offset: 0x2B51F, size: 0x8, addend: 0x0, symName: __ZNK5Eigen15PlainObjectBaseINS_6MatrixIdLi3ELi1ELi0ELi3ELi1EEEE4dataEv, symObjAddr: 0x2E54, symBinAddr: 0x10001D468, symSize: 0x24 }
  - { offsetInCU: 0x23130, offset: 0x2B545, size: 0x8, addend: 0x0, symName: __ZN5Eigen8internal30plainobjectbase_evaluator_dataIdLi0EEC1EPKdl, symObjAddr: 0x2E78, symBinAddr: 0x10001D48C, symSize: 0x3C }
  - { offsetInCU: 0x23177, offset: 0x2B58C, size: 0x8, addend: 0x0, symName: __ZN5Eigen8internal14evaluator_baseINS_6MatrixIdLi3ELi1ELi0ELi3ELi1EEEED2Ev, symObjAddr: 0x2EB4, symBinAddr: 0x10001D4C8, symSize: 0x14 }
  - { offsetInCU: 0x231A0, offset: 0x2B5B5, size: 0x8, addend: 0x0, symName: __ZNK5Eigen12DenseStorageIdLi3ELi3ELi1ELi0EE4dataEv, symObjAddr: 0x2EC8, symBinAddr: 0x10001D4DC, symSize: 0x14 }
  - { offsetInCU: 0x231C6, offset: 0x2B5DB, size: 0x8, addend: 0x0, symName: __ZN5Eigen8internal30plainobjectbase_evaluator_dataIdLi0EEC2EPKdl, symObjAddr: 0x2EDC, symBinAddr: 0x10001D4F0, symSize: 0x40 }
  - { offsetInCU: 0x2320D, offset: 0x2B622, size: 0x8, addend: 0x0, symName: __ZN5Eigen8internal9evaluatorINS_6MatrixIdLi3ELi1ELi0ELi3ELi1EEEED2Ev, symObjAddr: 0x2F2C, symBinAddr: 0x10001D540, symSize: 0x2C }
  - { offsetInCU: 0x2323A, offset: 0x2B64F, size: 0x8, addend: 0x0, symName: __ZN5Eigen8internal9evaluatorINS_15PlainObjectBaseINS_6MatrixIdLi3ELi1ELi0ELi3ELi1EEEEEED2Ev, symObjAddr: 0x2F58, symBinAddr: 0x10001D56C, symSize: 0x2C }
  - { offsetInCU: 0x23265, offset: 0x2B67A, size: 0x8, addend: 0x0, symName: __ZNK5Eigen15DenseCoeffsBaseINS_6MatrixIdLi3ELi1ELi0ELi3ELi1EEELi0EEixEl, symObjAddr: 0x2F84, symBinAddr: 0x10001D598, symSize: 0xA4 }
  - { offsetInCU: 0x23299, offset: 0x2B6AE, size: 0x8, addend: 0x0, symName: __ZNK5Eigen15DenseCoeffsBaseINS_6MatrixIdLi3ELi1ELi0ELi3ELi1EEELi0EE5coeffEl, symObjAddr: 0x3028, symBinAddr: 0x10001D63C, symSize: 0x78 }
  - { offsetInCU: 0x232CD, offset: 0x2B6E2, size: 0x8, addend: 0x0, symName: __ZNK5Eigen8internal9evaluatorINS_15PlainObjectBaseINS_6MatrixIdLi3ELi1ELi0ELi3ELi1EEEEEE5coeffEl, symObjAddr: 0x30A0, symBinAddr: 0x10001D6B4, symSize: 0x24 }
  - { offsetInCU: 0x23301, offset: 0x2B716, size: 0x8, addend: 0x0, symName: __ZN5Eigen8internal13scalar_sum_opIddEC1Ev, symObjAddr: 0x30C4, symBinAddr: 0x10001D6D8, symSize: 0x2C }
  - { offsetInCU: 0x2332B, offset: 0x2B740, size: 0x8, addend: 0x0, symName: __ZN5Eigen13CwiseBinaryOpINS_8internal13scalar_sum_opIddEEKNS_6MatrixIdLi3ELi1ELi0ELi3ELi1EEES6_EC1ERS6_S8_RKS3_, symObjAddr: 0x30F0, symBinAddr: 0x10001D704, symSize: 0x44 }
  - { offsetInCU: 0x23380, offset: 0x2B795, size: 0x8, addend: 0x0, symName: __ZN5Eigen8internal13scalar_sum_opIddEC2Ev, symObjAddr: 0x3134, symBinAddr: 0x10001D748, symSize: 0x14 }
  - { offsetInCU: 0x233A9, offset: 0x2B7BE, size: 0x8, addend: 0x0, symName: __ZN5Eigen13CwiseBinaryOpINS_8internal13scalar_sum_opIddEEKNS_6MatrixIdLi3ELi1ELi0ELi3ELi1EEES6_EC2ERS6_S8_RKS3_, symObjAddr: 0x3148, symBinAddr: 0x10001D75C, symSize: 0xF0 }
  - { offsetInCU: 0x23403, offset: 0x2B818, size: 0x8, addend: 0x0, symName: __ZN5Eigen17CwiseBinaryOpImplINS_8internal13scalar_sum_opIddEEKNS_6MatrixIdLi3ELi1ELi0ELi3ELi1EEES6_NS_5DenseEEC2Ev, symObjAddr: 0x3238, symBinAddr: 0x10001D84C, symSize: 0x2C }
  - { offsetInCU: 0x2342E, offset: 0x2B843, size: 0x8, addend: 0x0, symName: __ZN5Eigen8internal13scalar_sum_opIddEC1ERKS2_, symObjAddr: 0x3264, symBinAddr: 0x10001D878, symSize: 0x34 }
  - { offsetInCU: 0x23462, offset: 0x2B877, size: 0x8, addend: 0x0, symName: __ZN5Eigen10MatrixBaseINS_13CwiseBinaryOpINS_8internal13scalar_sum_opIddEEKNS_6MatrixIdLi3ELi1ELi0ELi3ELi1EEES7_EEEC2Ev, symObjAddr: 0x3298, symBinAddr: 0x10001D8AC, symSize: 0x2C }
  - { offsetInCU: 0x2348D, offset: 0x2B8A2, size: 0x8, addend: 0x0, symName: __ZN5Eigen9DenseBaseINS_13CwiseBinaryOpINS_8internal13scalar_sum_opIddEEKNS_6MatrixIdLi3ELi1ELi0ELi3ELi1EEES7_EEEC2Ev, symObjAddr: 0x32C4, symBinAddr: 0x10001D8D8, symSize: 0x14 }
  - { offsetInCU: 0x234B7, offset: 0x2B8CC, size: 0x8, addend: 0x0, symName: __ZN5Eigen8internal13scalar_sum_opIddEC2ERKS2_, symObjAddr: 0x32D8, symBinAddr: 0x10001D8EC, symSize: 0x18 }
  - { offsetInCU: 0x234EA, offset: 0x2B8FF, size: 0x8, addend: 0x0, symName: __ZNK5Eigen9EigenBaseINS_13CwiseBinaryOpINS_8internal13scalar_sum_opIddEEKNS_6MatrixIdLi3ELi1ELi0ELi3ELi1EEES7_EEE7derivedEv, symObjAddr: 0x32F0, symBinAddr: 0x10001D904, symSize: 0x14 }
  - { offsetInCU: 0x23511, offset: 0x2B926, size: 0x8, addend: 0x0, symName: __ZN5Eigen13CwiseBinaryOpINS_8internal13scalar_sum_opIddEEKNS_6MatrixIdLi3ELi1ELi0ELi3ELi1EEES6_EC1ERKS7_, symObjAddr: 0x3304, symBinAddr: 0x10001D918, symSize: 0x34 }
  - { offsetInCU: 0x23546, offset: 0x2B95B, size: 0x8, addend: 0x0, symName: __ZNK5Eigen10MatrixBaseINS_13CwiseBinaryOpINS_8internal13scalar_sum_opIddEEKNS_6MatrixIdLi3ELi1ELi0ELi3ELi1EEES7_EEE11squaredNormEv, symObjAddr: 0x3338, symBinAddr: 0x10001D94C, symSize: 0x7C }
  - { offsetInCU: 0x2356D, offset: 0x2B982, size: 0x8, addend: 0x0, symName: __ZNK5Eigen10MatrixBaseINS_13CwiseBinaryOpINS_8internal13scalar_sum_opIddEEKNS_6MatrixIdLi3ELi1ELi0ELi3ELi1EEES7_EEEdvIdEEKNS1_INS2_18scalar_quotient_opIdNS2_18promote_scalar_argIdT_Xsr5Eigen8internal14has_ReturnTypeINS_20ScalarBinaryOpTraitsIdSD_NSB_IdSD_EEEEEE5valueEE4typeEEEKS8_KNS2_19plain_constant_typeIS8_SI_E4typeEEERKSD_, symObjAddr: 0x33B4, symBinAddr: 0x10001D9C8, symSize: 0xA8 }
  - { offsetInCU: 0x235AF, offset: 0x2B9C4, size: 0x8, addend: 0x0, symName: __ZN5Eigen6MatrixIdLi3ELi1ELi0ELi3ELi1EEC1INS_13CwiseBinaryOpINS_8internal18scalar_quotient_opIddEEKNS3_INS4_13scalar_sum_opIddEEKS1_S9_EEKNS_14CwiseNullaryOpINS4_18scalar_constant_opIdEES9_EEEEEERKNS_9EigenBaseIT_EE, symObjAddr: 0x345C, symBinAddr: 0x10001DA70, symSize: 0x34 }
  - { offsetInCU: 0x235F6, offset: 0x2BA0B, size: 0x8, addend: 0x0, symName: __ZN5Eigen6MatrixIdLi3ELi1ELi0ELi3ELi1EEC1INS_13CwiseBinaryOpINS_8internal13scalar_sum_opIddEEKS1_S7_EEEERKNS_9EigenBaseIT_EE, symObjAddr: 0x3490, symBinAddr: 0x10001DAA4, symSize: 0x34 }
  - { offsetInCU: 0x23639, offset: 0x2BA4E, size: 0x8, addend: 0x0, symName: __ZN5Eigen13CwiseBinaryOpINS_8internal13scalar_sum_opIddEEKNS_6MatrixIdLi3ELi1ELi0ELi3ELi1EEES6_EC2ERKS7_, symObjAddr: 0x34C4, symBinAddr: 0x10001DAD8, symSize: 0x48 }
  - { offsetInCU: 0x2366D, offset: 0x2BA82, size: 0x8, addend: 0x0, symName: __ZNK5Eigen10MatrixBaseINS_13CwiseBinaryOpINS_8internal13scalar_sum_opIddEEKNS_6MatrixIdLi3ELi1ELi0ELi3ELi1EEES7_EEE9cwiseAbs2Ev, symObjAddr: 0x3530, symBinAddr: 0x10001DB44, symSize: 0x4C }
  - { offsetInCU: 0x23694, offset: 0x2BAA9, size: 0x8, addend: 0x0, symName: __ZNK5Eigen9DenseBaseINS_12CwiseUnaryOpINS_8internal14scalar_abs2_opIdEEKNS_13CwiseBinaryOpINS2_13scalar_sum_opIddEEKNS_6MatrixIdLi3ELi1ELi0ELi3ELi1EEESA_EEEEE3sumEv, symObjAddr: 0x357C, symBinAddr: 0x10001DB90, symSize: 0x40 }
  - { offsetInCU: 0x236BD, offset: 0x2BAD2, size: 0x8, addend: 0x0, symName: __ZN5Eigen8internal17real_default_implIdLb0EE3runERKd, symObjAddr: 0x35BC, symBinAddr: 0x10001DBD0, symSize: 0x18 }
  - { offsetInCU: 0x236DF, offset: 0x2BAF4, size: 0x8, addend: 0x0, symName: __ZN5Eigen8internal14scalar_abs2_opIdEC1Ev, symObjAddr: 0x35D4, symBinAddr: 0x10001DBE8, symSize: 0x2C }
  - { offsetInCU: 0x23709, offset: 0x2BB1E, size: 0x8, addend: 0x0, symName: __ZN5Eigen12CwiseUnaryOpINS_8internal14scalar_abs2_opIdEEKNS_13CwiseBinaryOpINS1_13scalar_sum_opIddEEKNS_6MatrixIdLi3ELi1ELi0ELi3ELi1EEES9_EEEC1ERSB_RKS3_, symObjAddr: 0x3600, symBinAddr: 0x10001DC14, symSize: 0x3C }
  - { offsetInCU: 0x23750, offset: 0x2BB65, size: 0x8, addend: 0x0, symName: __ZN5Eigen8internal14scalar_abs2_opIdEC2Ev, symObjAddr: 0x363C, symBinAddr: 0x10001DC50, symSize: 0x14 }
  - { offsetInCU: 0x23779, offset: 0x2BB8E, size: 0x8, addend: 0x0, symName: __ZN5Eigen12CwiseUnaryOpINS_8internal14scalar_abs2_opIdEEKNS_13CwiseBinaryOpINS1_13scalar_sum_opIddEEKNS_6MatrixIdLi3ELi1ELi0ELi3ELi1EEES9_EEEC2ERSB_RKS3_, symObjAddr: 0x3650, symBinAddr: 0x10001DC64, symSize: 0x54 }
  - { offsetInCU: 0x237C5, offset: 0x2BBDA, size: 0x8, addend: 0x0, symName: __ZN5Eigen16CwiseUnaryOpImplINS_8internal14scalar_abs2_opIdEEKNS_13CwiseBinaryOpINS1_13scalar_sum_opIddEEKNS_6MatrixIdLi3ELi1ELi0ELi3ELi1EEES9_EENS_5DenseEEC2Ev, symObjAddr: 0x36A4, symBinAddr: 0x10001DCB8, symSize: 0x2C }
  - { offsetInCU: 0x237F0, offset: 0x2BC05, size: 0x8, addend: 0x0, symName: __ZN5Eigen8internal14scalar_abs2_opIdEC1ERKS2_, symObjAddr: 0x36D0, symBinAddr: 0x10001DCE4, symSize: 0x34 }
  - { offsetInCU: 0x23824, offset: 0x2BC39, size: 0x8, addend: 0x0, symName: __ZN5Eigen10MatrixBaseINS_12CwiseUnaryOpINS_8internal14scalar_abs2_opIdEEKNS_13CwiseBinaryOpINS2_13scalar_sum_opIddEEKNS_6MatrixIdLi3ELi1ELi0ELi3ELi1EEESA_EEEEEC2Ev, symObjAddr: 0x3704, symBinAddr: 0x10001DD18, symSize: 0x2C }
  - { offsetInCU: 0x2384F, offset: 0x2BC64, size: 0x8, addend: 0x0, symName: __ZN5Eigen9DenseBaseINS_12CwiseUnaryOpINS_8internal14scalar_abs2_opIdEEKNS_13CwiseBinaryOpINS2_13scalar_sum_opIddEEKNS_6MatrixIdLi3ELi1ELi0ELi3ELi1EEESA_EEEEEC2Ev, symObjAddr: 0x3730, symBinAddr: 0x10001DD44, symSize: 0x14 }
  - { offsetInCU: 0x23879, offset: 0x2BC8E, size: 0x8, addend: 0x0, symName: __ZN5Eigen8internal14scalar_abs2_opIdEC2ERKS2_, symObjAddr: 0x3744, symBinAddr: 0x10001DD58, symSize: 0x18 }
  - { offsetInCU: 0x238AC, offset: 0x2BCC1, size: 0x8, addend: 0x0, symName: __ZNK5Eigen9EigenBaseINS_12CwiseUnaryOpINS_8internal14scalar_abs2_opIdEEKNS_13CwiseBinaryOpINS2_13scalar_sum_opIddEEKNS_6MatrixIdLi3ELi1ELi0ELi3ELi1EEESA_EEEEE7derivedEv, symObjAddr: 0x375C, symBinAddr: 0x10001DD70, symSize: 0x14 }
  - { offsetInCU: 0x238D3, offset: 0x2BCE8, size: 0x8, addend: 0x0, symName: __ZNK5Eigen9DenseBaseINS_12CwiseUnaryOpINS_8internal14scalar_abs2_opIdEEKNS_13CwiseBinaryOpINS2_13scalar_sum_opIddEEKNS_6MatrixIdLi3ELi1ELi0ELi3ELi1EEESA_EEEEE5reduxIS7_EEdRKT_, symObjAddr: 0x3770, symBinAddr: 0x10001DD84, symSize: 0x10C }
  - { offsetInCU: 0x2392E, offset: 0x2BD43, size: 0x8, addend: 0x0, symName: __ZNK5Eigen9EigenBaseINS_12CwiseUnaryOpINS_8internal14scalar_abs2_opIdEEKNS_13CwiseBinaryOpINS2_13scalar_sum_opIddEEKNS_6MatrixIdLi3ELi1ELi0ELi3ELi1EEESA_EEEEE4rowsEv, symObjAddr: 0x387C, symBinAddr: 0x10001DE90, symSize: 0x28 }
  - { offsetInCU: 0x23954, offset: 0x2BD69, size: 0x8, addend: 0x0, symName: __ZNK5Eigen9EigenBaseINS_12CwiseUnaryOpINS_8internal14scalar_abs2_opIdEEKNS_13CwiseBinaryOpINS2_13scalar_sum_opIddEEKNS_6MatrixIdLi3ELi1ELi0ELi3ELi1EEESA_EEEEE4colsEv, symObjAddr: 0x38A4, symBinAddr: 0x10001DEB8, symSize: 0x28 }
  - { offsetInCU: 0x2397A, offset: 0x2BD8F, size: 0x8, addend: 0x0, symName: __ZN5Eigen8internal15redux_evaluatorINS_12CwiseUnaryOpINS0_14scalar_abs2_opIdEEKNS_13CwiseBinaryOpINS0_13scalar_sum_opIddEEKNS_6MatrixIdLi3ELi1ELi0ELi3ELi1EEESA_EEEEEC1ERKSD_, symObjAddr: 0x38CC, symBinAddr: 0x10001DEE0, symSize: 0x34 }
  - { offsetInCU: 0x239B3, offset: 0x2BDC8, size: 0x8, addend: 0x0, symName: __ZN5Eigen8internal10redux_implINS0_13scalar_sum_opIddEENS0_15redux_evaluatorINS_12CwiseUnaryOpINS0_14scalar_abs2_opIdEEKNS_13CwiseBinaryOpIS3_KNS_6MatrixIdLi3ELi1ELi0ELi3ELi1EEESB_EEEEEELi3ELi2EE3runISE_EEdRKSF_RKS3_RKT_, symObjAddr: 0x3900, symBinAddr: 0x10001DF14, symSize: 0x100 }
  - { offsetInCU: 0x23A1B, offset: 0x2BE30, size: 0x8, addend: 0x0, symName: __ZN5Eigen8internal15redux_evaluatorINS_12CwiseUnaryOpINS0_14scalar_abs2_opIdEEKNS_13CwiseBinaryOpINS0_13scalar_sum_opIddEEKNS_6MatrixIdLi3ELi1ELi0ELi3ELi1EEESA_EEEEED1Ev, symObjAddr: 0x3A00, symBinAddr: 0x10001E014, symSize: 0x2C }
  - { offsetInCU: 0x23A47, offset: 0x2BE5C, size: 0x8, addend: 0x0, symName: __ZNK5Eigen12CwiseUnaryOpINS_8internal14scalar_abs2_opIdEEKNS_13CwiseBinaryOpINS1_13scalar_sum_opIddEEKNS_6MatrixIdLi3ELi1ELi0ELi3ELi1EEES9_EEE4rowsEv, symObjAddr: 0x3A2C, symBinAddr: 0x10001E040, symSize: 0x28 }
  - { offsetInCU: 0x23A6D, offset: 0x2BE82, size: 0x8, addend: 0x0, symName: __ZNK5Eigen13CwiseBinaryOpINS_8internal13scalar_sum_opIddEEKNS_6MatrixIdLi3ELi1ELi0ELi3ELi1EEES6_E4rowsEv, symObjAddr: 0x3A54, symBinAddr: 0x10001E068, symSize: 0x28 }
  - { offsetInCU: 0x23A93, offset: 0x2BEA8, size: 0x8, addend: 0x0, symName: __ZNK5Eigen12CwiseUnaryOpINS_8internal14scalar_abs2_opIdEEKNS_13CwiseBinaryOpINS1_13scalar_sum_opIddEEKNS_6MatrixIdLi3ELi1ELi0ELi3ELi1EEES9_EEE4colsEv, symObjAddr: 0x3A7C, symBinAddr: 0x10001E090, symSize: 0x28 }
  - { offsetInCU: 0x23AB9, offset: 0x2BECE, size: 0x8, addend: 0x0, symName: __ZNK5Eigen13CwiseBinaryOpINS_8internal13scalar_sum_opIddEEKNS_6MatrixIdLi3ELi1ELi0ELi3ELi1EEES6_E4colsEv, symObjAddr: 0x3AA4, symBinAddr: 0x10001E0B8, symSize: 0x28 }
  - { offsetInCU: 0x23ADF, offset: 0x2BEF4, size: 0x8, addend: 0x0, symName: __ZN5Eigen8internal15redux_evaluatorINS_12CwiseUnaryOpINS0_14scalar_abs2_opIdEEKNS_13CwiseBinaryOpINS0_13scalar_sum_opIddEEKNS_6MatrixIdLi3ELi1ELi0ELi3ELi1EEESA_EEEEEC2ERKSD_, symObjAddr: 0x3ACC, symBinAddr: 0x10001E0E0, symSize: 0x34 }
  - { offsetInCU: 0x23B18, offset: 0x2BF2D, size: 0x8, addend: 0x0, symName: __ZN5Eigen8internal9evaluatorINS_12CwiseUnaryOpINS0_14scalar_abs2_opIdEEKNS_13CwiseBinaryOpINS0_13scalar_sum_opIddEEKNS_6MatrixIdLi3ELi1ELi0ELi3ELi1EEESA_EEEEEC2ERKSD_, symObjAddr: 0x3B00, symBinAddr: 0x10001E114, symSize: 0x34 }
  - { offsetInCU: 0x23B50, offset: 0x2BF65, size: 0x8, addend: 0x0, symName: __ZN5Eigen8internal15unary_evaluatorINS_12CwiseUnaryOpINS0_14scalar_abs2_opIdEEKNS_13CwiseBinaryOpINS0_13scalar_sum_opIddEEKNS_6MatrixIdLi3ELi1ELi0ELi3ELi1EEESA_EEEENS0_10IndexBasedEdEC2ERKSD_, symObjAddr: 0x3B34, symBinAddr: 0x10001E148, symSize: 0x64 }
  - { offsetInCU: 0x23B8A, offset: 0x2BF9F, size: 0x8, addend: 0x0, symName: __ZN5Eigen8internal14evaluator_baseINS_12CwiseUnaryOpINS0_14scalar_abs2_opIdEEKNS_13CwiseBinaryOpINS0_13scalar_sum_opIddEEKNS_6MatrixIdLi3ELi1ELi0ELi3ELi1EEESA_EEEEEC2Ev, symObjAddr: 0x3B98, symBinAddr: 0x10001E1AC, symSize: 0x14 }
  - { offsetInCU: 0x23BB3, offset: 0x2BFC8, size: 0x8, addend: 0x0, symName: __ZN5Eigen8internal15unary_evaluatorINS_12CwiseUnaryOpINS0_14scalar_abs2_opIdEEKNS_13CwiseBinaryOpINS0_13scalar_sum_opIddEEKNS_6MatrixIdLi3ELi1ELi0ELi3ELi1EEESA_EEEENS0_10IndexBasedEdE4DataC1ERKSD_, symObjAddr: 0x3BAC, symBinAddr: 0x10001E1C0, symSize: 0x34 }
  - { offsetInCU: 0x23BED, offset: 0x2C002, size: 0x8, addend: 0x0, symName: __ZN5Eigen8internal14evaluator_baseINS_12CwiseUnaryOpINS0_14scalar_abs2_opIdEEKNS_13CwiseBinaryOpINS0_13scalar_sum_opIddEEKNS_6MatrixIdLi3ELi1ELi0ELi3ELi1EEESA_EEEEED2Ev, symObjAddr: 0x3BE0, symBinAddr: 0x10001E1F4, symSize: 0x14 }
  - { offsetInCU: 0x23C16, offset: 0x2C02B, size: 0x8, addend: 0x0, symName: __ZN5Eigen8internal15unary_evaluatorINS_12CwiseUnaryOpINS0_14scalar_abs2_opIdEEKNS_13CwiseBinaryOpINS0_13scalar_sum_opIddEEKNS_6MatrixIdLi3ELi1ELi0ELi3ELi1EEESA_EEEENS0_10IndexBasedEdE4DataC2ERKSD_, symObjAddr: 0x3BF4, symBinAddr: 0x10001E208, symSize: 0x58 }
  - { offsetInCU: 0x23C4F, offset: 0x2C064, size: 0x8, addend: 0x0, symName: __ZNK5Eigen12CwiseUnaryOpINS_8internal14scalar_abs2_opIdEEKNS_13CwiseBinaryOpINS1_13scalar_sum_opIddEEKNS_6MatrixIdLi3ELi1ELi0ELi3ELi1EEES9_EEE7functorEv, symObjAddr: 0x3C4C, symBinAddr: 0x10001E260, symSize: 0x18 }
  - { offsetInCU: 0x23C75, offset: 0x2C08A, size: 0x8, addend: 0x0, symName: __ZNK5Eigen12CwiseUnaryOpINS_8internal14scalar_abs2_opIdEEKNS_13CwiseBinaryOpINS1_13scalar_sum_opIddEEKNS_6MatrixIdLi3ELi1ELi0ELi3ELi1EEES9_EEE16nestedExpressionEv, symObjAddr: 0x3C64, symBinAddr: 0x10001E278, symSize: 0x18 }
  - { offsetInCU: 0x23C9B, offset: 0x2C0B0, size: 0x8, addend: 0x0, symName: __ZN5Eigen8internal9evaluatorIKNS_13CwiseBinaryOpINS0_13scalar_sum_opIddEEKNS_6MatrixIdLi3ELi1ELi0ELi3ELi1EEES7_EEEC1ERS9_, symObjAddr: 0x3C7C, symBinAddr: 0x10001E290, symSize: 0x34 }
  - { offsetInCU: 0x23CD3, offset: 0x2C0E8, size: 0x8, addend: 0x0, symName: __ZN5Eigen8internal9evaluatorIKNS_13CwiseBinaryOpINS0_13scalar_sum_opIddEEKNS_6MatrixIdLi3ELi1ELi0ELi3ELi1EEES7_EEEC2ERS9_, symObjAddr: 0x3CB0, symBinAddr: 0x10001E2C4, symSize: 0x34 }
  - { offsetInCU: 0x23D0B, offset: 0x2C120, size: 0x8, addend: 0x0, symName: __ZN5Eigen8internal9evaluatorINS_13CwiseBinaryOpINS0_13scalar_sum_opIddEEKNS_6MatrixIdLi3ELi1ELi0ELi3ELi1EEES7_EEEC2ERKS8_, symObjAddr: 0x3CE4, symBinAddr: 0x10001E2F8, symSize: 0x34 }
  - { offsetInCU: 0x23D44, offset: 0x2C159, size: 0x8, addend: 0x0, symName: __ZN5Eigen8internal16binary_evaluatorINS_13CwiseBinaryOpINS0_13scalar_sum_opIddEEKNS_6MatrixIdLi3ELi1ELi0ELi3ELi1EEES7_EENS0_10IndexBasedES9_ddEC2ERKS8_, symObjAddr: 0x3D18, symBinAddr: 0x10001E32C, symSize: 0x64 }
  - { offsetInCU: 0x23D7E, offset: 0x2C193, size: 0x8, addend: 0x0, symName: __ZN5Eigen8internal14evaluator_baseINS_13CwiseBinaryOpINS0_13scalar_sum_opIddEEKNS_6MatrixIdLi3ELi1ELi0ELi3ELi1EEES7_EEEC2Ev, symObjAddr: 0x3D7C, symBinAddr: 0x10001E390, symSize: 0x14 }
  - { offsetInCU: 0x23DA7, offset: 0x2C1BC, size: 0x8, addend: 0x0, symName: __ZN5Eigen8internal16binary_evaluatorINS_13CwiseBinaryOpINS0_13scalar_sum_opIddEEKNS_6MatrixIdLi3ELi1ELi0ELi3ELi1EEES7_EENS0_10IndexBasedES9_ddE4DataC1ERKS8_, symObjAddr: 0x3D90, symBinAddr: 0x10001E3A4, symSize: 0x34 }
  - { offsetInCU: 0x23DE1, offset: 0x2C1F6, size: 0x8, addend: 0x0, symName: __ZN5Eigen8internal14evaluator_baseINS_13CwiseBinaryOpINS0_13scalar_sum_opIddEEKNS_6MatrixIdLi3ELi1ELi0ELi3ELi1EEES7_EEED2Ev, symObjAddr: 0x3DC4, symBinAddr: 0x10001E3D8, symSize: 0x14 }
  - { offsetInCU: 0x23E0A, offset: 0x2C21F, size: 0x8, addend: 0x0, symName: __ZN5Eigen8internal16binary_evaluatorINS_13CwiseBinaryOpINS0_13scalar_sum_opIddEEKNS_6MatrixIdLi3ELi1ELi0ELi3ELi1EEES7_EENS0_10IndexBasedES9_ddE4DataC2ERKS8_, symObjAddr: 0x3DD8, symBinAddr: 0x10001E3EC, symSize: 0xA8 }
  - { offsetInCU: 0x23E43, offset: 0x2C258, size: 0x8, addend: 0x0, symName: __ZNK5Eigen13CwiseBinaryOpINS_8internal13scalar_sum_opIddEEKNS_6MatrixIdLi3ELi1ELi0ELi3ELi1EEES6_E7functorEv, symObjAddr: 0x3E80, symBinAddr: 0x10001E494, symSize: 0x18 }
  - { offsetInCU: 0x23E69, offset: 0x2C27E, size: 0x8, addend: 0x0, symName: __ZNK5Eigen13CwiseBinaryOpINS_8internal13scalar_sum_opIddEEKNS_6MatrixIdLi3ELi1ELi0ELi3ELi1EEES6_E3lhsEv, symObjAddr: 0x3E98, symBinAddr: 0x10001E4AC, symSize: 0x18 }
  - { offsetInCU: 0x23E8F, offset: 0x2C2A4, size: 0x8, addend: 0x0, symName: __ZN5Eigen8internal9evaluatorIKNS_6MatrixIdLi3ELi1ELi0ELi3ELi1EEEEC1ERS4_, symObjAddr: 0x3EB0, symBinAddr: 0x10001E4C4, symSize: 0x34 }
  - { offsetInCU: 0x23EC7, offset: 0x2C2DC, size: 0x8, addend: 0x0, symName: __ZNK5Eigen13CwiseBinaryOpINS_8internal13scalar_sum_opIddEEKNS_6MatrixIdLi3ELi1ELi0ELi3ELi1EEES6_E3rhsEv, symObjAddr: 0x3EE4, symBinAddr: 0x10001E4F8, symSize: 0x18 }
  - { offsetInCU: 0x23EEE, offset: 0x2C303, size: 0x8, addend: 0x0, symName: __ZN5Eigen8internal9evaluatorIKNS_6MatrixIdLi3ELi1ELi0ELi3ELi1EEEED1Ev, symObjAddr: 0x3EFC, symBinAddr: 0x10001E510, symSize: 0x2C }
  - { offsetInCU: 0x23F19, offset: 0x2C32E, size: 0x8, addend: 0x0, symName: __ZN5Eigen8internal9evaluatorIKNS_6MatrixIdLi3ELi1ELi0ELi3ELi1EEEEC2ERS4_, symObjAddr: 0x3F28, symBinAddr: 0x10001E53C, symSize: 0x34 }
  - { offsetInCU: 0x23F52, offset: 0x2C367, size: 0x8, addend: 0x0, symName: __ZN5Eigen8internal9evaluatorIKNS_6MatrixIdLi3ELi1ELi0ELi3ELi1EEEED2Ev, symObjAddr: 0x3F5C, symBinAddr: 0x10001E570, symSize: 0x2C }
  - { offsetInCU: 0x23F87, offset: 0x2C39C, size: 0x8, addend: 0x0, symName: __ZNK5Eigen8internal13scalar_sum_opIddE6preduxI19__simd128_float64_tEEdRKT_, symObjAddr: 0x3F88, symBinAddr: 0x10001E59C, symSize: 0x28 }
  - { offsetInCU: 0x23FC4, offset: 0x2C3D9, size: 0x8, addend: 0x0, symName: __ZNK5Eigen8internal13scalar_sum_opIddEclERKdS4_, symObjAddr: 0x3FE0, symBinAddr: 0x10001E5F4, symSize: 0x2C }
  - { offsetInCU: 0x24006, offset: 0x2C41B, size: 0x8, addend: 0x0, symName: __ZN5Eigen8internal20redux_novec_unrollerINS0_13scalar_sum_opIddEENS0_15redux_evaluatorINS_12CwiseUnaryOpINS0_14scalar_abs2_opIdEEKNS_13CwiseBinaryOpIS3_KNS_6MatrixIdLi3ELi1ELi0ELi3ELi1EEESB_EEEEEELi2ELi1EE3runERKSF_RKS3_, symObjAddr: 0x400C, symBinAddr: 0x10001E620, symSize: 0x30 }
  - { offsetInCU: 0x24032, offset: 0x2C447, size: 0x8, addend: 0x0, symName: __ZNK5Eigen8internal15redux_evaluatorINS_12CwiseUnaryOpINS0_14scalar_abs2_opIdEEKNS_13CwiseBinaryOpINS0_13scalar_sum_opIddEEKNS_6MatrixIdLi3ELi1ELi0ELi3ELi1EEESA_EEEEE18packetByOuterInnerILi0E19__simd128_float64_tEET0_ll, symObjAddr: 0x408C, symBinAddr: 0x10001E6A0, symSize: 0x34 }
  - { offsetInCU: 0x24089, offset: 0x2C49E, size: 0x8, addend: 0x0, symName: __ZNK5Eigen8internal15unary_evaluatorINS_12CwiseUnaryOpINS0_14scalar_abs2_opIdEEKNS_13CwiseBinaryOpINS0_13scalar_sum_opIddEEKNS_6MatrixIdLi3ELi1ELi0ELi3ELi1EEESA_EEEENS0_10IndexBasedEdE6packetILi0E19__simd128_float64_tEET0_ll, symObjAddr: 0x40C0, symBinAddr: 0x10001E6D4, symSize: 0x58 }
  - { offsetInCU: 0x240E0, offset: 0x2C4F5, size: 0x8, addend: 0x0, symName: __ZNK5Eigen8internal15unary_evaluatorINS_12CwiseUnaryOpINS0_14scalar_abs2_opIdEEKNS_13CwiseBinaryOpINS0_13scalar_sum_opIddEEKNS_6MatrixIdLi3ELi1ELi0ELi3ELi1EEESA_EEEENS0_10IndexBasedEdE4Data4funcEv, symObjAddr: 0x4118, symBinAddr: 0x10001E72C, symSize: 0x14 }
  - { offsetInCU: 0x24106, offset: 0x2C51B, size: 0x8, addend: 0x0, symName: __ZNK5Eigen8internal14scalar_abs2_opIdE8packetOpI19__simd128_float64_tEEKT_RS6_, symObjAddr: 0x412C, symBinAddr: 0x10001E740, symSize: 0x2C }
  - { offsetInCU: 0x24143, offset: 0x2C558, size: 0x8, addend: 0x0, symName: __ZNK5Eigen8internal16binary_evaluatorINS_13CwiseBinaryOpINS0_13scalar_sum_opIddEEKNS_6MatrixIdLi3ELi1ELi0ELi3ELi1EEES7_EENS0_10IndexBasedES9_ddE6packetILi0E19__simd128_float64_tEET0_ll, symObjAddr: 0x4158, symBinAddr: 0x10001E76C, symSize: 0x7C }
  - { offsetInCU: 0x2419A, offset: 0x2C5AF, size: 0x8, addend: 0x0, symName: __ZNK5Eigen8internal16binary_evaluatorINS_13CwiseBinaryOpINS0_13scalar_sum_opIddEEKNS_6MatrixIdLi3ELi1ELi0ELi3ELi1EEES7_EENS0_10IndexBasedES9_ddE4Data4funcEv, symObjAddr: 0x4214, symBinAddr: 0x10001E828, symSize: 0x14 }
  - { offsetInCU: 0x241C0, offset: 0x2C5D5, size: 0x8, addend: 0x0, symName: __ZNK5Eigen8internal13scalar_sum_opIddE8packetOpI19__simd128_float64_tEET_RKS5_S7_, symObjAddr: 0x4228, symBinAddr: 0x10001E83C, symSize: 0x30 }
  - { offsetInCU: 0x24215, offset: 0x2C62A, size: 0x8, addend: 0x0, symName: __ZNK5Eigen8internal9evaluatorINS_15PlainObjectBaseINS_6MatrixIdLi3ELi1ELi0ELi3ELi1EEEEEE6packetILi0E19__simd128_float64_tEET0_ll, symObjAddr: 0x4258, symBinAddr: 0x10001E86C, symSize: 0x60 }
  - { offsetInCU: 0x24289, offset: 0x2C69E, size: 0x8, addend: 0x0, symName: __ZNK5Eigen8internal30plainobjectbase_evaluator_dataIdLi0EE11outerStrideEv, symObjAddr: 0x42F8, symBinAddr: 0x10001E90C, symSize: 0x14 }
  - { offsetInCU: 0x242AF, offset: 0x2C6C4, size: 0x8, addend: 0x0, symName: __ZNK5Eigen8internal15redux_evaluatorINS_12CwiseUnaryOpINS0_14scalar_abs2_opIdEEKNS_13CwiseBinaryOpINS0_13scalar_sum_opIddEEKNS_6MatrixIdLi3ELi1ELi0ELi3ELi1EEESA_EEEEE17coeffByOuterInnerEll, symObjAddr: 0x4334, symBinAddr: 0x10001E948, symSize: 0x34 }
  - { offsetInCU: 0x242F3, offset: 0x2C708, size: 0x8, addend: 0x0, symName: __ZNK5Eigen8internal15unary_evaluatorINS_12CwiseUnaryOpINS0_14scalar_abs2_opIdEEKNS_13CwiseBinaryOpINS0_13scalar_sum_opIddEEKNS_6MatrixIdLi3ELi1ELi0ELi3ELi1EEESA_EEEENS0_10IndexBasedEdE5coeffEll, symObjAddr: 0x4368, symBinAddr: 0x10001E97C, symSize: 0x58 }
  - { offsetInCU: 0x24337, offset: 0x2C74C, size: 0x8, addend: 0x0, symName: __ZNK5Eigen8internal14scalar_abs2_opIdEclERKd, symObjAddr: 0x43C0, symBinAddr: 0x10001E9D4, symSize: 0x28 }
  - { offsetInCU: 0x2436B, offset: 0x2C780, size: 0x8, addend: 0x0, symName: __ZNK5Eigen8internal16binary_evaluatorINS_13CwiseBinaryOpINS0_13scalar_sum_opIddEEKNS_6MatrixIdLi3ELi1ELi0ELi3ELi1EEES7_EENS0_10IndexBasedES9_ddE5coeffEll, symObjAddr: 0x43E8, symBinAddr: 0x10001E9FC, symSize: 0x70 }
  - { offsetInCU: 0x243AF, offset: 0x2C7C4, size: 0x8, addend: 0x0, symName: __ZN5Eigen8internal9abs2_implIdE3runERKd, symObjAddr: 0x447C, symBinAddr: 0x10001EA90, symSize: 0x24 }
  - { offsetInCU: 0x243D3, offset: 0x2C7E8, size: 0x8, addend: 0x0, symName: __ZN5Eigen8internal17abs2_impl_defaultIdLb0EE3runERKd, symObjAddr: 0x44A0, symBinAddr: 0x10001EAB4, symSize: 0x24 }
  - { offsetInCU: 0x243F6, offset: 0x2C80B, size: 0x8, addend: 0x0, symName: __ZNK5Eigen8internal9evaluatorINS_15PlainObjectBaseINS_6MatrixIdLi3ELi1ELi0ELi3ELi1EEEEEE5coeffEll, symObjAddr: 0x44C4, symBinAddr: 0x10001EAD8, symSize: 0x5C }
  - { offsetInCU: 0x24439, offset: 0x2C84E, size: 0x8, addend: 0x0, symName: __ZN5Eigen8internal15redux_evaluatorINS_12CwiseUnaryOpINS0_14scalar_abs2_opIdEEKNS_13CwiseBinaryOpINS0_13scalar_sum_opIddEEKNS_6MatrixIdLi3ELi1ELi0ELi3ELi1EEESA_EEEEED2Ev, symObjAddr: 0x4520, symBinAddr: 0x10001EB34, symSize: 0x2C }
  - { offsetInCU: 0x24466, offset: 0x2C87B, size: 0x8, addend: 0x0, symName: __ZN5Eigen8internal9evaluatorINS_12CwiseUnaryOpINS0_14scalar_abs2_opIdEEKNS_13CwiseBinaryOpINS0_13scalar_sum_opIddEEKNS_6MatrixIdLi3ELi1ELi0ELi3ELi1EEESA_EEEEED2Ev, symObjAddr: 0x454C, symBinAddr: 0x10001EB60, symSize: 0x2C }
  - { offsetInCU: 0x24492, offset: 0x2C8A7, size: 0x8, addend: 0x0, symName: __ZN5Eigen8internal15unary_evaluatorINS_12CwiseUnaryOpINS0_14scalar_abs2_opIdEEKNS_13CwiseBinaryOpINS0_13scalar_sum_opIddEEKNS_6MatrixIdLi3ELi1ELi0ELi3ELi1EEESA_EEEENS0_10IndexBasedEdED2Ev, symObjAddr: 0x4578, symBinAddr: 0x10001EB8C, symSize: 0x34 }
  - { offsetInCU: 0x244BE, offset: 0x2C8D3, size: 0x8, addend: 0x0, symName: __ZN5Eigen8internal15unary_evaluatorINS_12CwiseUnaryOpINS0_14scalar_abs2_opIdEEKNS_13CwiseBinaryOpINS0_13scalar_sum_opIddEEKNS_6MatrixIdLi3ELi1ELi0ELi3ELi1EEESA_EEEENS0_10IndexBasedEdE4DataD1Ev, symObjAddr: 0x45AC, symBinAddr: 0x10001EBC0, symSize: 0x2C }
  - { offsetInCU: 0x244EB, offset: 0x2C900, size: 0x8, addend: 0x0, symName: __ZN5Eigen8internal15unary_evaluatorINS_12CwiseUnaryOpINS0_14scalar_abs2_opIdEEKNS_13CwiseBinaryOpINS0_13scalar_sum_opIddEEKNS_6MatrixIdLi3ELi1ELi0ELi3ELi1EEESA_EEEENS0_10IndexBasedEdE4DataD2Ev, symObjAddr: 0x45D8, symBinAddr: 0x10001EBEC, symSize: 0x30 }
  - { offsetInCU: 0x24518, offset: 0x2C92D, size: 0x8, addend: 0x0, symName: __ZN5Eigen8internal9evaluatorIKNS_13CwiseBinaryOpINS0_13scalar_sum_opIddEEKNS_6MatrixIdLi3ELi1ELi0ELi3ELi1EEES7_EEED1Ev, symObjAddr: 0x4608, symBinAddr: 0x10001EC1C, symSize: 0x2C }
  - { offsetInCU: 0x24544, offset: 0x2C959, size: 0x8, addend: 0x0, symName: __ZN5Eigen8internal9evaluatorIKNS_13CwiseBinaryOpINS0_13scalar_sum_opIddEEKNS_6MatrixIdLi3ELi1ELi0ELi3ELi1EEES7_EEED2Ev, symObjAddr: 0x4634, symBinAddr: 0x10001EC48, symSize: 0x2C }
  - { offsetInCU: 0x24570, offset: 0x2C985, size: 0x8, addend: 0x0, symName: __ZN5Eigen8internal9evaluatorINS_13CwiseBinaryOpINS0_13scalar_sum_opIddEEKNS_6MatrixIdLi3ELi1ELi0ELi3ELi1EEES7_EEED2Ev, symObjAddr: 0x4660, symBinAddr: 0x10001EC74, symSize: 0x2C }
  - { offsetInCU: 0x2459D, offset: 0x2C9B2, size: 0x8, addend: 0x0, symName: __ZN5Eigen8internal16binary_evaluatorINS_13CwiseBinaryOpINS0_13scalar_sum_opIddEEKNS_6MatrixIdLi3ELi1ELi0ELi3ELi1EEES7_EENS0_10IndexBasedES9_ddED2Ev, symObjAddr: 0x468C, symBinAddr: 0x10001ECA0, symSize: 0x34 }
  - { offsetInCU: 0x245C9, offset: 0x2C9DE, size: 0x8, addend: 0x0, symName: __ZN5Eigen8internal16binary_evaluatorINS_13CwiseBinaryOpINS0_13scalar_sum_opIddEEKNS_6MatrixIdLi3ELi1ELi0ELi3ELi1EEES7_EENS0_10IndexBasedES9_ddE4DataD1Ev, symObjAddr: 0x46C0, symBinAddr: 0x10001ECD4, symSize: 0x2C }
  - { offsetInCU: 0x245F6, offset: 0x2CA0B, size: 0x8, addend: 0x0, symName: __ZN5Eigen8internal16binary_evaluatorINS_13CwiseBinaryOpINS0_13scalar_sum_opIddEEKNS_6MatrixIdLi3ELi1ELi0ELi3ELi1EEES7_EENS0_10IndexBasedES9_ddE4DataD2Ev, symObjAddr: 0x46EC, symBinAddr: 0x10001ED00, symSize: 0x3C }
  - { offsetInCU: 0x24622, offset: 0x2CA37, size: 0x8, addend: 0x0, symName: __ZN5Eigen8internal18scalar_constant_opIdEC1ERKd, symObjAddr: 0x4728, symBinAddr: 0x10001ED3C, symSize: 0x34 }
  - { offsetInCU: 0x2465A, offset: 0x2CA6F, size: 0x8, addend: 0x0, symName: __ZN5Eigen14CwiseNullaryOpINS_8internal18scalar_constant_opIdEEKNS_6MatrixIdLi3ELi1ELi0ELi3ELi1EEEEC1EllRKS3_, symObjAddr: 0x475C, symBinAddr: 0x10001ED70, symSize: 0x44 }
  - { offsetInCU: 0x246AE, offset: 0x2CAC3, size: 0x8, addend: 0x0, symName: __ZN5Eigen8internal18scalar_quotient_opIddEC1Ev, symObjAddr: 0x47A0, symBinAddr: 0x10001EDB4, symSize: 0x2C }
  - { offsetInCU: 0x246D8, offset: 0x2CAED, size: 0x8, addend: 0x0, symName: __ZN5Eigen13CwiseBinaryOpINS_8internal18scalar_quotient_opIddEEKNS0_INS1_13scalar_sum_opIddEEKNS_6MatrixIdLi3ELi1ELi0ELi3ELi1EEES8_EEKNS_14CwiseNullaryOpINS1_18scalar_constant_opIdEES8_EEEC1ERSA_RSF_RKS3_, symObjAddr: 0x47CC, symBinAddr: 0x10001EDE0, symSize: 0x44 }
  - { offsetInCU: 0x2472D, offset: 0x2CB42, size: 0x8, addend: 0x0, symName: __ZN5Eigen8internal18scalar_constant_opIdEC2ERKd, symObjAddr: 0x4810, symBinAddr: 0x10001EE24, symSize: 0x24 }
  - { offsetInCU: 0x24764, offset: 0x2CB79, size: 0x8, addend: 0x0, symName: __ZN5Eigen14CwiseNullaryOpINS_8internal18scalar_constant_opIdEEKNS_6MatrixIdLi3ELi1ELi0ELi3ELi1EEEEC2EllRKS3_, symObjAddr: 0x4834, symBinAddr: 0x10001EE48, symSize: 0x108 }
  - { offsetInCU: 0x247B8, offset: 0x2CBCD, size: 0x8, addend: 0x0, symName: __ZN5Eigen10MatrixBaseINS_14CwiseNullaryOpINS_8internal18scalar_constant_opIdEEKNS_6MatrixIdLi3ELi1ELi0ELi3ELi1EEEEEEC2Ev, symObjAddr: 0x493C, symBinAddr: 0x10001EF50, symSize: 0x2C }
  - { offsetInCU: 0x247E2, offset: 0x2CBF7, size: 0x8, addend: 0x0, symName: __ZN5Eigen8internal19variable_if_dynamicIlLi3EEC1El, symObjAddr: 0x4968, symBinAddr: 0x10001EF7C, symSize: 0x34 }
  - { offsetInCU: 0x2481A, offset: 0x2CC2F, size: 0x8, addend: 0x0, symName: __ZN5Eigen8internal19variable_if_dynamicIlLi1EEC1El, symObjAddr: 0x499C, symBinAddr: 0x10001EFB0, symSize: 0x34 }
  - { offsetInCU: 0x24852, offset: 0x2CC67, size: 0x8, addend: 0x0, symName: __ZN5Eigen8internal18scalar_constant_opIdEC1ERKS2_, symObjAddr: 0x49D0, symBinAddr: 0x10001EFE4, symSize: 0x34 }
  - { offsetInCU: 0x2488B, offset: 0x2CCA0, size: 0x8, addend: 0x0, symName: __ZN5Eigen9DenseBaseINS_14CwiseNullaryOpINS_8internal18scalar_constant_opIdEEKNS_6MatrixIdLi3ELi1ELi0ELi3ELi1EEEEEEC2Ev, symObjAddr: 0x4A04, symBinAddr: 0x10001F018, symSize: 0x14 }
  - { offsetInCU: 0x248B4, offset: 0x2CCC9, size: 0x8, addend: 0x0, symName: __ZN5Eigen8internal19variable_if_dynamicIlLi3EEC2El, symObjAddr: 0x4A18, symBinAddr: 0x10001F02C, symSize: 0x64 }
  - { offsetInCU: 0x248EC, offset: 0x2CD01, size: 0x8, addend: 0x0, symName: __ZN5Eigen8internal19variable_if_dynamicIlLi1EEC2El, symObjAddr: 0x4A7C, symBinAddr: 0x10001F090, symSize: 0x64 }
  - { offsetInCU: 0x24925, offset: 0x2CD3A, size: 0x8, addend: 0x0, symName: __ZN5Eigen8internal18scalar_constant_opIdEC2ERKS2_, symObjAddr: 0x4AE0, symBinAddr: 0x10001F0F4, symSize: 0x24 }
  - { offsetInCU: 0x2495D, offset: 0x2CD72, size: 0x8, addend: 0x0, symName: __ZN5Eigen8internal18scalar_quotient_opIddEC2Ev, symObjAddr: 0x4B04, symBinAddr: 0x10001F118, symSize: 0x14 }
  - { offsetInCU: 0x24986, offset: 0x2CD9B, size: 0x8, addend: 0x0, symName: __ZN5Eigen13CwiseBinaryOpINS_8internal18scalar_quotient_opIddEEKNS0_INS1_13scalar_sum_opIddEEKNS_6MatrixIdLi3ELi1ELi0ELi3ELi1EEES8_EEKNS_14CwiseNullaryOpINS1_18scalar_constant_opIdEES8_EEEC2ERSA_RSF_RKS3_, symObjAddr: 0x4B18, symBinAddr: 0x10001F12C, symSize: 0xFC }
  - { offsetInCU: 0x249E0, offset: 0x2CDF5, size: 0x8, addend: 0x0, symName: __ZN5Eigen17CwiseBinaryOpImplINS_8internal18scalar_quotient_opIddEEKNS_13CwiseBinaryOpINS1_13scalar_sum_opIddEEKNS_6MatrixIdLi3ELi1ELi0ELi3ELi1EEES9_EEKNS_14CwiseNullaryOpINS1_18scalar_constant_opIdEES9_EENS_5DenseEEC2Ev, symObjAddr: 0x4C14, symBinAddr: 0x10001F228, symSize: 0x2C }
  - { offsetInCU: 0x24A0C, offset: 0x2CE21, size: 0x8, addend: 0x0, symName: __ZN5Eigen14CwiseNullaryOpINS_8internal18scalar_constant_opIdEEKNS_6MatrixIdLi3ELi1ELi0ELi3ELi1EEEEC1ERKS7_, symObjAddr: 0x4C40, symBinAddr: 0x10001F254, symSize: 0x34 }
  - { offsetInCU: 0x24A40, offset: 0x2CE55, size: 0x8, addend: 0x0, symName: __ZN5Eigen8internal18scalar_quotient_opIddEC1ERKS2_, symObjAddr: 0x4C74, symBinAddr: 0x10001F288, symSize: 0x34 }
  - { offsetInCU: 0x24A75, offset: 0x2CE8A, size: 0x8, addend: 0x0, symName: __ZNK5Eigen14CwiseNullaryOpINS_8internal18scalar_constant_opIdEEKNS_6MatrixIdLi3ELi1ELi0ELi3ELi1EEEE4rowsEv, symObjAddr: 0x4CA8, symBinAddr: 0x10001F2BC, symSize: 0x20 }
  - { offsetInCU: 0x24A9B, offset: 0x2CEB0, size: 0x8, addend: 0x0, symName: __ZNK5Eigen14CwiseNullaryOpINS_8internal18scalar_constant_opIdEEKNS_6MatrixIdLi3ELi1ELi0ELi3ELi1EEEE4colsEv, symObjAddr: 0x4CC8, symBinAddr: 0x10001F2DC, symSize: 0x20 }
  - { offsetInCU: 0x24AC1, offset: 0x2CED6, size: 0x8, addend: 0x0, symName: __ZN5Eigen10MatrixBaseINS_13CwiseBinaryOpINS_8internal18scalar_quotient_opIddEEKNS1_INS2_13scalar_sum_opIddEEKNS_6MatrixIdLi3ELi1ELi0ELi3ELi1EEES9_EEKNS_14CwiseNullaryOpINS2_18scalar_constant_opIdEES9_EEEEEC2Ev, symObjAddr: 0x4CE8, symBinAddr: 0x10001F2FC, symSize: 0x2C }
  - { offsetInCU: 0x24AEC, offset: 0x2CF01, size: 0x8, addend: 0x0, symName: __ZN5Eigen9DenseBaseINS_13CwiseBinaryOpINS_8internal18scalar_quotient_opIddEEKNS1_INS2_13scalar_sum_opIddEEKNS_6MatrixIdLi3ELi1ELi0ELi3ELi1EEES9_EEKNS_14CwiseNullaryOpINS2_18scalar_constant_opIdEES9_EEEEEC2Ev, symObjAddr: 0x4D14, symBinAddr: 0x10001F328, symSize: 0x14 }
  - { offsetInCU: 0x24B16, offset: 0x2CF2B, size: 0x8, addend: 0x0, symName: __ZN5Eigen14CwiseNullaryOpINS_8internal18scalar_constant_opIdEEKNS_6MatrixIdLi3ELi1ELi0ELi3ELi1EEEEC2ERKS7_, symObjAddr: 0x4D28, symBinAddr: 0x10001F33C, symSize: 0x48 }
  - { offsetInCU: 0x24B4B, offset: 0x2CF60, size: 0x8, addend: 0x0, symName: __ZN5Eigen8internal18scalar_quotient_opIddEC2ERKS2_, symObjAddr: 0x4D70, symBinAddr: 0x10001F384, symSize: 0x18 }
  - { offsetInCU: 0x24B80, offset: 0x2CF95, size: 0x8, addend: 0x0, symName: __ZN5Eigen8internal19variable_if_dynamicIlLi3EE5valueEv, symObjAddr: 0x4D88, symBinAddr: 0x10001F39C, symSize: 0x8 }
  - { offsetInCU: 0x24B94, offset: 0x2CFA9, size: 0x8, addend: 0x0, symName: __ZN5Eigen8internal19variable_if_dynamicIlLi1EE5valueEv, symObjAddr: 0x4D90, symBinAddr: 0x10001F3A4, symSize: 0x8 }
  - { offsetInCU: 0x24BA7, offset: 0x2CFBC, size: 0x8, addend: 0x0, symName: __ZN5Eigen6MatrixIdLi3ELi1ELi0ELi3ELi1EEC2INS_13CwiseBinaryOpINS_8internal18scalar_quotient_opIddEEKNS3_INS4_13scalar_sum_opIddEEKS1_S9_EEKNS_14CwiseNullaryOpINS4_18scalar_constant_opIdEES9_EEEEEERKNS_9EigenBaseIT_EE, symObjAddr: 0x4D98, symBinAddr: 0x10001F3AC, symSize: 0x40 }
  - { offsetInCU: 0x24BE9, offset: 0x2CFFE, size: 0x8, addend: 0x0, symName: __ZNK5Eigen9EigenBaseINS_13CwiseBinaryOpINS_8internal18scalar_quotient_opIddEEKNS1_INS2_13scalar_sum_opIddEEKNS_6MatrixIdLi3ELi1ELi0ELi3ELi1EEES9_EEKNS_14CwiseNullaryOpINS2_18scalar_constant_opIdEES9_EEEEE7derivedEv, symObjAddr: 0x4DD8, symBinAddr: 0x10001F3EC, symSize: 0x14 }
  - { offsetInCU: 0x24C0F, offset: 0x2D024, size: 0x8, addend: 0x0, symName: __ZN5Eigen15PlainObjectBaseINS_6MatrixIdLi3ELi1ELi0ELi3ELi1EEEEC2INS_13CwiseBinaryOpINS_8internal18scalar_quotient_opIddEEKNS5_INS6_13scalar_sum_opIddEEKS2_SB_EEKNS_14CwiseNullaryOpINS6_18scalar_constant_opIdEESB_EEEEEERKNS_9DenseBaseIT_EE, symObjAddr: 0x4DEC, symBinAddr: 0x10001F400, symSize: 0x54 }
  - { offsetInCU: 0x24C51, offset: 0x2D066, size: 0x8, addend: 0x0, symName: __ZN5Eigen10MatrixBaseINS_6MatrixIdLi3ELi1ELi0ELi3ELi1EEEEC2Ev, symObjAddr: 0x4E40, symBinAddr: 0x10001F454, symSize: 0x2C }
  - { offsetInCU: 0x24C7B, offset: 0x2D090, size: 0x8, addend: 0x0, symName: __ZN5Eigen12DenseStorageIdLi3ELi3ELi1ELi0EEC1Ev, symObjAddr: 0x4E6C, symBinAddr: 0x10001F480, symSize: 0x2C }
  - { offsetInCU: 0x24CA6, offset: 0x2D0BB, size: 0x8, addend: 0x0, symName: __ZN5Eigen15PlainObjectBaseINS_6MatrixIdLi3ELi1ELi0ELi3ELi1EEEE22_check_template_paramsEv, symObjAddr: 0x4E98, symBinAddr: 0x10001F4AC, symSize: 0x4 }
  - { offsetInCU: 0x24CB9, offset: 0x2D0CE, size: 0x8, addend: 0x0, symName: __ZN5Eigen15PlainObjectBaseINS_6MatrixIdLi3ELi1ELi0ELi3ELi1EEEE10resizeLikeINS_13CwiseBinaryOpINS_8internal18scalar_quotient_opIddEEKNS5_INS6_13scalar_sum_opIddEEKS2_SB_EEKNS_14CwiseNullaryOpINS6_18scalar_constant_opIdEESB_EEEEEEvRKNS_9EigenBaseIT_EE, symObjAddr: 0x4E9C, symBinAddr: 0x10001F4B0, symSize: 0xF0 }
  - { offsetInCU: 0x24D15, offset: 0x2D12A, size: 0x8, addend: 0x0, symName: __ZN5Eigen15PlainObjectBaseINS_6MatrixIdLi3ELi1ELi0ELi3ELi1EEEE12_set_noaliasINS_13CwiseBinaryOpINS_8internal18scalar_quotient_opIddEEKNS5_INS6_13scalar_sum_opIddEEKS2_SB_EEKNS_14CwiseNullaryOpINS6_18scalar_constant_opIdEESB_EEEEEERS2_RKNS_9DenseBaseIT_EE, symObjAddr: 0x4F8C, symBinAddr: 0x10001F5A0, symSize: 0x60 }
  - { offsetInCU: 0x24D54, offset: 0x2D169, size: 0x8, addend: 0x0, symName: __ZN5Eigen9DenseBaseINS_6MatrixIdLi3ELi1ELi0ELi3ELi1EEEEC2Ev, symObjAddr: 0x4FEC, symBinAddr: 0x10001F600, symSize: 0x14 }
  - { offsetInCU: 0x24D7D, offset: 0x2D192, size: 0x8, addend: 0x0, symName: __ZN5Eigen12DenseStorageIdLi3ELi3ELi1ELi0EEC2Ev, symObjAddr: 0x5000, symBinAddr: 0x10001F614, symSize: 0x2C }
  - { offsetInCU: 0x24DA7, offset: 0x2D1BC, size: 0x8, addend: 0x0, symName: __ZN5Eigen8internal11plain_arrayIdLi3ELi0ELi0EEC1Ev, symObjAddr: 0x502C, symBinAddr: 0x10001F640, symSize: 0x2C }
  - { offsetInCU: 0x24DD1, offset: 0x2D1E6, size: 0x8, addend: 0x0, symName: __ZN5Eigen8internal11plain_arrayIdLi3ELi0ELi0EEC2Ev, symObjAddr: 0x5058, symBinAddr: 0x10001F66C, symSize: 0x2C }
  - { offsetInCU: 0x24DFB, offset: 0x2D210, size: 0x8, addend: 0x0, symName: __ZNK5Eigen13CwiseBinaryOpINS_8internal18scalar_quotient_opIddEEKNS0_INS1_13scalar_sum_opIddEEKNS_6MatrixIdLi3ELi1ELi0ELi3ELi1EEES8_EEKNS_14CwiseNullaryOpINS1_18scalar_constant_opIdEES8_EEE4rowsEv, symObjAddr: 0x5088, symBinAddr: 0x10001F69C, symSize: 0x28 }
  - { offsetInCU: 0x24E21, offset: 0x2D236, size: 0x8, addend: 0x0, symName: __ZNK5Eigen13CwiseBinaryOpINS_8internal18scalar_quotient_opIddEEKNS0_INS1_13scalar_sum_opIddEEKNS_6MatrixIdLi3ELi1ELi0ELi3ELi1EEES8_EEKNS_14CwiseNullaryOpINS1_18scalar_constant_opIdEES8_EEE4colsEv, symObjAddr: 0x50B0, symBinAddr: 0x10001F6C4, symSize: 0x28 }
  - { offsetInCU: 0x24E47, offset: 0x2D25C, size: 0x8, addend: 0x0, symName: __ZN5Eigen15PlainObjectBaseINS_6MatrixIdLi3ELi1ELi0ELi3ELi1EEEE6resizeEll, symObjAddr: 0x50D8, symBinAddr: 0x10001F6EC, symSize: 0x104 }
  - { offsetInCU: 0x24E8B, offset: 0x2D2A0, size: 0x8, addend: 0x0, symName: __ZN5Eigen12DenseStorageIdLi3ELi3ELi1ELi0EE6resizeElll, symObjAddr: 0x51DC, symBinAddr: 0x10001F7F0, symSize: 0x1C }
  - { offsetInCU: 0x24ED2, offset: 0x2D2E7, size: 0x8, addend: 0x0, symName: __ZN5Eigen8internal9assign_opIddEC1Ev, symObjAddr: 0x5234, symBinAddr: 0x10001F848, symSize: 0x2C }
  - { offsetInCU: 0x24EFC, offset: 0x2D311, size: 0x8, addend: 0x0, symName: __ZN5Eigen8internal10AssignmentINS_6MatrixIdLi3ELi1ELi0ELi3ELi1EEENS_13CwiseBinaryOpINS0_18scalar_quotient_opIddEEKNS4_INS0_13scalar_sum_opIddEEKS3_S9_EEKNS_14CwiseNullaryOpINS0_18scalar_constant_opIdEES9_EEEENS0_9assign_opIddEENS0_11Dense2DenseEvE3runERS3_RKSH_RKSJ_, symObjAddr: 0x5260, symBinAddr: 0x10001F874, symSize: 0x40 }
  - { offsetInCU: 0x24F3D, offset: 0x2D352, size: 0x8, addend: 0x0, symName: __ZN5Eigen8internal9evaluatorINS_13CwiseBinaryOpINS0_18scalar_quotient_opIddEEKNS2_INS0_13scalar_sum_opIddEEKNS_6MatrixIdLi3ELi1ELi0ELi3ELi1EEES9_EEKNS_14CwiseNullaryOpINS0_18scalar_constant_opIdEES9_EEEEEC1ERKSH_, symObjAddr: 0x5394, symBinAddr: 0x10001F9A8, symSize: 0x34 }
  - { offsetInCU: 0x24F76, offset: 0x2D38B, size: 0x8, addend: 0x0, symName: __ZNK5Eigen9EigenBaseINS_6MatrixIdLi3ELi1ELi0ELi3ELi1EEEE18const_cast_derivedEv, symObjAddr: 0x54C0, symBinAddr: 0x10001FAD4, symSize: 0x14 }
  - { offsetInCU: 0x24F9C, offset: 0x2D3B1, size: 0x8, addend: 0x0, symName: __ZN5Eigen8internal31generic_dense_assignment_kernelINS0_9evaluatorINS_6MatrixIdLi3ELi1ELi0ELi3ELi1EEEEENS2_INS_13CwiseBinaryOpINS0_18scalar_quotient_opIddEEKNS6_INS0_13scalar_sum_opIddEEKS4_SB_EEKNS_14CwiseNullaryOpINS0_18scalar_constant_opIdEESB_EEEEEENS0_9assign_opIddEELi0EEC1ERS5_RKSK_RKSM_RS4_, symObjAddr: 0x54D4, symBinAddr: 0x10001FAE8, symSize: 0x4C }
  - { offsetInCU: 0x25002, offset: 0x2D417, size: 0x8, addend: 0x0, symName: __ZN5Eigen8internal21dense_assignment_loopINS0_31generic_dense_assignment_kernelINS0_9evaluatorINS_6MatrixIdLi3ELi1ELi0ELi3ELi1EEEEENS3_INS_13CwiseBinaryOpINS0_18scalar_quotient_opIddEEKNS7_INS0_13scalar_sum_opIddEEKS5_SC_EEKNS_14CwiseNullaryOpINS0_18scalar_constant_opIdEESC_EEEEEENS0_9assign_opIddEELi0EEELi3ELi2EE3runERSO_, symObjAddr: 0x5520, symBinAddr: 0x10001FB34, symSize: 0x2C }
  - { offsetInCU: 0x25026, offset: 0x2D43B, size: 0x8, addend: 0x0, symName: __ZN5Eigen8internal9evaluatorINS_13CwiseBinaryOpINS0_18scalar_quotient_opIddEEKNS2_INS0_13scalar_sum_opIddEEKNS_6MatrixIdLi3ELi1ELi0ELi3ELi1EEES9_EEKNS_14CwiseNullaryOpINS0_18scalar_constant_opIdEES9_EEEEED1Ev, symObjAddr: 0x554C, symBinAddr: 0x10001FB60, symSize: 0x2C }
  - { offsetInCU: 0x25052, offset: 0x2D467, size: 0x8, addend: 0x0, symName: __ZN5Eigen8internal9evaluatorINS_13CwiseBinaryOpINS0_18scalar_quotient_opIddEEKNS2_INS0_13scalar_sum_opIddEEKNS_6MatrixIdLi3ELi1ELi0ELi3ELi1EEES9_EEKNS_14CwiseNullaryOpINS0_18scalar_constant_opIdEES9_EEEEEC2ERKSH_, symObjAddr: 0x5578, symBinAddr: 0x10001FB8C, symSize: 0x34 }
  - { offsetInCU: 0x2508B, offset: 0x2D4A0, size: 0x8, addend: 0x0, symName: __ZN5Eigen8internal16binary_evaluatorINS_13CwiseBinaryOpINS0_18scalar_quotient_opIddEEKNS2_INS0_13scalar_sum_opIddEEKNS_6MatrixIdLi3ELi1ELi0ELi3ELi1EEES9_EEKNS_14CwiseNullaryOpINS0_18scalar_constant_opIdEES9_EEEENS0_10IndexBasedESI_ddEC2ERKSH_, symObjAddr: 0x55AC, symBinAddr: 0x10001FBC0, symSize: 0x64 }
  - { offsetInCU: 0x250C5, offset: 0x2D4DA, size: 0x8, addend: 0x0, symName: __ZN5Eigen8internal14evaluator_baseINS_13CwiseBinaryOpINS0_18scalar_quotient_opIddEEKNS2_INS0_13scalar_sum_opIddEEKNS_6MatrixIdLi3ELi1ELi0ELi3ELi1EEES9_EEKNS_14CwiseNullaryOpINS0_18scalar_constant_opIdEES9_EEEEEC2Ev, symObjAddr: 0x5610, symBinAddr: 0x10001FC24, symSize: 0x14 }
  - { offsetInCU: 0x250EE, offset: 0x2D503, size: 0x8, addend: 0x0, symName: __ZN5Eigen8internal16binary_evaluatorINS_13CwiseBinaryOpINS0_18scalar_quotient_opIddEEKNS2_INS0_13scalar_sum_opIddEEKNS_6MatrixIdLi3ELi1ELi0ELi3ELi1EEES9_EEKNS_14CwiseNullaryOpINS0_18scalar_constant_opIdEES9_EEEENS0_10IndexBasedESI_ddE4DataC1ERKSH_, symObjAddr: 0x5624, symBinAddr: 0x10001FC38, symSize: 0x34 }
  - { offsetInCU: 0x25128, offset: 0x2D53D, size: 0x8, addend: 0x0, symName: __ZN5Eigen8internal14evaluator_baseINS_13CwiseBinaryOpINS0_18scalar_quotient_opIddEEKNS2_INS0_13scalar_sum_opIddEEKNS_6MatrixIdLi3ELi1ELi0ELi3ELi1EEES9_EEKNS_14CwiseNullaryOpINS0_18scalar_constant_opIdEES9_EEEEED2Ev, symObjAddr: 0x5658, symBinAddr: 0x10001FC6C, symSize: 0x14 }
  - { offsetInCU: 0x25151, offset: 0x2D566, size: 0x8, addend: 0x0, symName: __ZN5Eigen8internal16binary_evaluatorINS_13CwiseBinaryOpINS0_18scalar_quotient_opIddEEKNS2_INS0_13scalar_sum_opIddEEKNS_6MatrixIdLi3ELi1ELi0ELi3ELi1EEES9_EEKNS_14CwiseNullaryOpINS0_18scalar_constant_opIdEES9_EEEENS0_10IndexBasedESI_ddE4DataC2ERKSH_, symObjAddr: 0x566C, symBinAddr: 0x10001FC80, symSize: 0xA8 }
  - { offsetInCU: 0x2518A, offset: 0x2D59F, size: 0x8, addend: 0x0, symName: __ZNK5Eigen13CwiseBinaryOpINS_8internal18scalar_quotient_opIddEEKNS0_INS1_13scalar_sum_opIddEEKNS_6MatrixIdLi3ELi1ELi0ELi3ELi1EEES8_EEKNS_14CwiseNullaryOpINS1_18scalar_constant_opIdEES8_EEE7functorEv, symObjAddr: 0x5714, symBinAddr: 0x10001FD28, symSize: 0x18 }
  - { offsetInCU: 0x251B0, offset: 0x2D5C5, size: 0x8, addend: 0x0, symName: __ZNK5Eigen13CwiseBinaryOpINS_8internal18scalar_quotient_opIddEEKNS0_INS1_13scalar_sum_opIddEEKNS_6MatrixIdLi3ELi1ELi0ELi3ELi1EEES8_EEKNS_14CwiseNullaryOpINS1_18scalar_constant_opIdEES8_EEE3lhsEv, symObjAddr: 0x572C, symBinAddr: 0x10001FD40, symSize: 0x18 }
  - { offsetInCU: 0x251D6, offset: 0x2D5EB, size: 0x8, addend: 0x0, symName: __ZNK5Eigen13CwiseBinaryOpINS_8internal18scalar_quotient_opIddEEKNS0_INS1_13scalar_sum_opIddEEKNS_6MatrixIdLi3ELi1ELi0ELi3ELi1EEES8_EEKNS_14CwiseNullaryOpINS1_18scalar_constant_opIdEES8_EEE3rhsEv, symObjAddr: 0x5744, symBinAddr: 0x10001FD58, symSize: 0x18 }
  - { offsetInCU: 0x251FC, offset: 0x2D611, size: 0x8, addend: 0x0, symName: __ZN5Eigen8internal9evaluatorIKNS_14CwiseNullaryOpINS0_18scalar_constant_opIdEEKNS_6MatrixIdLi3ELi1ELi0ELi3ELi1EEEEEEC1ERS9_, symObjAddr: 0x575C, symBinAddr: 0x10001FD70, symSize: 0x34 }
  - { offsetInCU: 0x25234, offset: 0x2D649, size: 0x8, addend: 0x0, symName: __ZN5Eigen8internal9evaluatorIKNS_14CwiseNullaryOpINS0_18scalar_constant_opIdEEKNS_6MatrixIdLi3ELi1ELi0ELi3ELi1EEEEEEC2ERS9_, symObjAddr: 0x5790, symBinAddr: 0x10001FDA4, symSize: 0x34 }
  - { offsetInCU: 0x2526C, offset: 0x2D681, size: 0x8, addend: 0x0, symName: __ZN5Eigen8internal9evaluatorINS_14CwiseNullaryOpINS0_18scalar_constant_opIdEEKNS_6MatrixIdLi3ELi1ELi0ELi3ELi1EEEEEEC2ERKS8_, symObjAddr: 0x57C4, symBinAddr: 0x10001FDD8, symSize: 0x74 }
  - { offsetInCU: 0x252A6, offset: 0x2D6BB, size: 0x8, addend: 0x0, symName: __ZN5Eigen8internal14evaluator_baseINS_14CwiseNullaryOpINS0_18scalar_constant_opIdEEKNS_6MatrixIdLi3ELi1ELi0ELi3ELi1EEEEEEC2Ev, symObjAddr: 0x5838, symBinAddr: 0x10001FE4C, symSize: 0x14 }
  - { offsetInCU: 0x252CF, offset: 0x2D6E4, size: 0x8, addend: 0x0, symName: __ZNK5Eigen14CwiseNullaryOpINS_8internal18scalar_constant_opIdEEKNS_6MatrixIdLi3ELi1ELi0ELi3ELi1EEEE7functorEv, symObjAddr: 0x584C, symBinAddr: 0x10001FE60, symSize: 0x18 }
  - { offsetInCU: 0x252F6, offset: 0x2D70B, size: 0x8, addend: 0x0, symName: __ZN5Eigen8internal14evaluator_baseINS_14CwiseNullaryOpINS0_18scalar_constant_opIdEEKNS_6MatrixIdLi3ELi1ELi0ELi3ELi1EEEEEED2Ev, symObjAddr: 0x5864, symBinAddr: 0x10001FE78, symSize: 0x14 }
  - { offsetInCU: 0x25320, offset: 0x2D735, size: 0x8, addend: 0x0, symName: __ZN5Eigen8internal31generic_dense_assignment_kernelINS0_9evaluatorINS_6MatrixIdLi3ELi1ELi0ELi3ELi1EEEEENS2_INS_13CwiseBinaryOpINS0_18scalar_quotient_opIddEEKNS6_INS0_13scalar_sum_opIddEEKS4_SB_EEKNS_14CwiseNullaryOpINS0_18scalar_constant_opIdEESB_EEEEEENS0_9assign_opIddEELi0EEC2ERS5_RKSK_RKSM_RS4_, symObjAddr: 0x5878, symBinAddr: 0x10001FE8C, symSize: 0x44 }
  - { offsetInCU: 0x25385, offset: 0x2D79A, size: 0x8, addend: 0x0, symName: __ZN5Eigen8internal47copy_using_evaluator_innervec_CompleteUnrollingINS0_31generic_dense_assignment_kernelINS0_9evaluatorINS_6MatrixIdLi3ELi1ELi0ELi3ELi1EEEEENS3_INS_13CwiseBinaryOpINS0_18scalar_quotient_opIddEEKNS7_INS0_13scalar_sum_opIddEEKS5_SC_EEKNS_14CwiseNullaryOpINS0_18scalar_constant_opIdEESC_EEEEEENS0_9assign_opIddEELi0EEELi0ELi2EE3runERSO_, symObjAddr: 0x58BC, symBinAddr: 0x10001FED0, symSize: 0x34 }
  - { offsetInCU: 0x253A8, offset: 0x2D7BD, size: 0x8, addend: 0x0, symName: __ZN5Eigen8internal55copy_using_evaluator_DefaultTraversal_CompleteUnrollingINS0_31generic_dense_assignment_kernelINS0_9evaluatorINS_6MatrixIdLi3ELi1ELi0ELi3ELi1EEEEENS3_INS_13CwiseBinaryOpINS0_18scalar_quotient_opIddEEKNS7_INS0_13scalar_sum_opIddEEKS5_SC_EEKNS_14CwiseNullaryOpINS0_18scalar_constant_opIdEESC_EEEEEENS0_9assign_opIddEELi0EEELi2ELi3EE3runERSO_, symObjAddr: 0x58F0, symBinAddr: 0x10001FF04, symSize: 0x34 }
  - { offsetInCU: 0x253CA, offset: 0x2D7DF, size: 0x8, addend: 0x0, symName: __ZN5Eigen8internal31generic_dense_assignment_kernelINS0_9evaluatorINS_6MatrixIdLi3ELi1ELi0ELi3ELi1EEEEENS2_INS_13CwiseBinaryOpINS0_18scalar_quotient_opIddEEKNS6_INS0_13scalar_sum_opIddEEKS4_SB_EEKNS_14CwiseNullaryOpINS0_18scalar_constant_opIdEESB_EEEEEENS0_9assign_opIddEELi0EE24assignPacketByOuterInnerILi0ELi0E19__simd128_float64_tEEvll, symObjAddr: 0x5924, symBinAddr: 0x10001FF38, symSize: 0x60 }
  - { offsetInCU: 0x2544A, offset: 0x2D85F, size: 0x8, addend: 0x0, symName: __ZN5Eigen8internal47copy_using_evaluator_innervec_CompleteUnrollingINS0_31generic_dense_assignment_kernelINS0_9evaluatorINS_6MatrixIdLi3ELi1ELi0ELi3ELi1EEEEENS3_INS_13CwiseBinaryOpINS0_18scalar_quotient_opIddEEKNS7_INS0_13scalar_sum_opIddEEKS5_SC_EEKNS_14CwiseNullaryOpINS0_18scalar_constant_opIdEESC_EEEEEENS0_9assign_opIddEELi0EEELi2ELi2EE3runERSO_, symObjAddr: 0x5984, symBinAddr: 0x10001FF98, symSize: 0x10 }
  - { offsetInCU: 0x2546A, offset: 0x2D87F, size: 0x8, addend: 0x0, symName: __ZN5Eigen8internal31generic_dense_assignment_kernelINS0_9evaluatorINS_6MatrixIdLi3ELi1ELi0ELi3ELi1EEEEENS2_INS_13CwiseBinaryOpINS0_18scalar_quotient_opIddEEKNS6_INS0_13scalar_sum_opIddEEKS4_SB_EEKNS_14CwiseNullaryOpINS0_18scalar_constant_opIdEESB_EEEEEENS0_9assign_opIddEELi0EE20rowIndexByOuterInnerEll, symObjAddr: 0x5994, symBinAddr: 0x10001FFA8, symSize: 0x18 }
  - { offsetInCU: 0x2549D, offset: 0x2D8B2, size: 0x8, addend: 0x0, symName: __ZN5Eigen8internal31generic_dense_assignment_kernelINS0_9evaluatorINS_6MatrixIdLi3ELi1ELi0ELi3ELi1EEEEENS2_INS_13CwiseBinaryOpINS0_18scalar_quotient_opIddEEKNS6_INS0_13scalar_sum_opIddEEKS4_SB_EEKNS_14CwiseNullaryOpINS0_18scalar_constant_opIdEESB_EEEEEENS0_9assign_opIddEELi0EE20colIndexByOuterInnerEll, symObjAddr: 0x59AC, symBinAddr: 0x10001FFC0, symSize: 0x18 }
  - { offsetInCU: 0x254CF, offset: 0x2D8E4, size: 0x8, addend: 0x0, symName: __ZN5Eigen8internal31generic_dense_assignment_kernelINS0_9evaluatorINS_6MatrixIdLi3ELi1ELi0ELi3ELi1EEEEENS2_INS_13CwiseBinaryOpINS0_18scalar_quotient_opIddEEKNS6_INS0_13scalar_sum_opIddEEKS4_SB_EEKNS_14CwiseNullaryOpINS0_18scalar_constant_opIdEESB_EEEEEENS0_9assign_opIddEELi0EE12assignPacketILi0ELi0E19__simd128_float64_tEEvll, symObjAddr: 0x59C4, symBinAddr: 0x10001FFD8, symSize: 0x70 }
  - { offsetInCU: 0x25530, offset: 0x2D945, size: 0x8, addend: 0x0, symName: __ZNK5Eigen8internal9assign_opIddE12assignPacketILi0E19__simd128_float64_tEEvPdRKT0_, symObjAddr: 0x5A34, symBinAddr: 0x100020048, symSize: 0x40 }
  - { offsetInCU: 0x255AD, offset: 0x2D9C2, size: 0x8, addend: 0x0, symName: __ZN5Eigen8internal9evaluatorINS_15PlainObjectBaseINS_6MatrixIdLi3ELi1ELi0ELi3ELi1EEEEEE8coeffRefEll, symObjAddr: 0x5A74, symBinAddr: 0x100020088, symSize: 0x5C }
  - { offsetInCU: 0x255EF, offset: 0x2DA04, size: 0x8, addend: 0x0, symName: __ZNK5Eigen8internal16binary_evaluatorINS_13CwiseBinaryOpINS0_18scalar_quotient_opIddEEKNS2_INS0_13scalar_sum_opIddEEKNS_6MatrixIdLi3ELi1ELi0ELi3ELi1EEES9_EEKNS_14CwiseNullaryOpINS0_18scalar_constant_opIdEES9_EEEENS0_10IndexBasedESI_ddE6packetILi0E19__simd128_float64_tEET0_ll, symObjAddr: 0x5AD0, symBinAddr: 0x1000200E4, symSize: 0x7C }
  - { offsetInCU: 0x25646, offset: 0x2DA5B, size: 0x8, addend: 0x0, symName: __ZNK5Eigen8internal16binary_evaluatorINS_13CwiseBinaryOpINS0_18scalar_quotient_opIddEEKNS2_INS0_13scalar_sum_opIddEEKNS_6MatrixIdLi3ELi1ELi0ELi3ELi1EEES9_EEKNS_14CwiseNullaryOpINS0_18scalar_constant_opIdEES9_EEEENS0_10IndexBasedESI_ddE4Data4funcEv, symObjAddr: 0x5B78, symBinAddr: 0x10002018C, symSize: 0x14 }
  - { offsetInCU: 0x2566C, offset: 0x2DA81, size: 0x8, addend: 0x0, symName: __ZNK5Eigen8internal18scalar_quotient_opIddE8packetOpI19__simd128_float64_tEEKT_RS6_S7_, symObjAddr: 0x5B8C, symBinAddr: 0x1000201A0, symSize: 0x30 }
  - { offsetInCU: 0x256C3, offset: 0x2DAD8, size: 0x8, addend: 0x0, symName: __ZNK5Eigen8internal9evaluatorINS_14CwiseNullaryOpINS0_18scalar_constant_opIdEEKNS_6MatrixIdLi3ELi1ELi0ELi3ELi1EEEEEE6packetILi0E19__simd128_float64_tlEET0_T1_SD_, symObjAddr: 0x5BBC, symBinAddr: 0x1000201D0, symSize: 0x3C }
  - { offsetInCU: 0x25728, offset: 0x2DB3D, size: 0x8, addend: 0x0, symName: __ZNK5Eigen8internal15nullary_wrapperIdNS0_18scalar_constant_opIdEELb1ELb0ELb0EE8packetOpI19__simd128_float64_tlEET_RKS3_T0_SA_, symObjAddr: 0x5C38, symBinAddr: 0x10002024C, symSize: 0x30 }
  - { offsetInCU: 0x25785, offset: 0x2DB9A, size: 0x8, addend: 0x0, symName: __ZNK5Eigen8internal18scalar_constant_opIdE8packetOpI19__simd128_float64_tEEKT_v, symObjAddr: 0x5C68, symBinAddr: 0x10002027C, symSize: 0x24 }
  - { offsetInCU: 0x257B4, offset: 0x2DBC9, size: 0x8, addend: 0x0, symName: __ZN5Eigen8internal31generic_dense_assignment_kernelINS0_9evaluatorINS_6MatrixIdLi3ELi1ELi0ELi3ELi1EEEEENS2_INS_13CwiseBinaryOpINS0_18scalar_quotient_opIddEEKNS6_INS0_13scalar_sum_opIddEEKS4_SB_EEKNS_14CwiseNullaryOpINS0_18scalar_constant_opIdEESB_EEEEEENS0_9assign_opIddEELi0EE23assignCoeffByOuterInnerEll, symObjAddr: 0x5CD0, symBinAddr: 0x1000202E4, symSize: 0x60 }
  - { offsetInCU: 0x25817, offset: 0x2DC2C, size: 0x8, addend: 0x0, symName: __ZN5Eigen8internal55copy_using_evaluator_DefaultTraversal_CompleteUnrollingINS0_31generic_dense_assignment_kernelINS0_9evaluatorINS_6MatrixIdLi3ELi1ELi0ELi3ELi1EEEEENS3_INS_13CwiseBinaryOpINS0_18scalar_quotient_opIddEEKNS7_INS0_13scalar_sum_opIddEEKS5_SC_EEKNS_14CwiseNullaryOpINS0_18scalar_constant_opIdEESC_EEEEEENS0_9assign_opIddEELi0EEELi3ELi3EE3runERSO_, symObjAddr: 0x5D30, symBinAddr: 0x100020344, symSize: 0x10 }
  - { offsetInCU: 0x25835, offset: 0x2DC4A, size: 0x8, addend: 0x0, symName: __ZN5Eigen8internal31generic_dense_assignment_kernelINS0_9evaluatorINS_6MatrixIdLi3ELi1ELi0ELi3ELi1EEEEENS2_INS_13CwiseBinaryOpINS0_18scalar_quotient_opIddEEKNS6_INS0_13scalar_sum_opIddEEKS4_SB_EEKNS_14CwiseNullaryOpINS0_18scalar_constant_opIdEESB_EEEEEENS0_9assign_opIddEELi0EE11assignCoeffEll, symObjAddr: 0x5D40, symBinAddr: 0x100020354, symSize: 0x70 }
  - { offsetInCU: 0x25879, offset: 0x2DC8E, size: 0x8, addend: 0x0, symName: __ZNK5Eigen8internal9assign_opIddE11assignCoeffERdRKd, symObjAddr: 0x5DB0, symBinAddr: 0x1000203C4, symSize: 0x28 }
  - { offsetInCU: 0x258BB, offset: 0x2DCD0, size: 0x8, addend: 0x0, symName: __ZNK5Eigen8internal16binary_evaluatorINS_13CwiseBinaryOpINS0_18scalar_quotient_opIddEEKNS2_INS0_13scalar_sum_opIddEEKNS_6MatrixIdLi3ELi1ELi0ELi3ELi1EEES9_EEKNS_14CwiseNullaryOpINS0_18scalar_constant_opIdEES9_EEEENS0_10IndexBasedESI_ddE5coeffEll, symObjAddr: 0x5DD8, symBinAddr: 0x1000203EC, symSize: 0x7C }
  - { offsetInCU: 0x258FF, offset: 0x2DD14, size: 0x8, addend: 0x0, symName: __ZNK5Eigen8internal18scalar_quotient_opIddEclERKdS4_, symObjAddr: 0x5E54, symBinAddr: 0x100020468, symSize: 0x2C }
  - { offsetInCU: 0x25943, offset: 0x2DD58, size: 0x8, addend: 0x0, symName: __ZNK5Eigen8internal9evaluatorINS_14CwiseNullaryOpINS0_18scalar_constant_opIdEEKNS_6MatrixIdLi3ELi1ELi0ELi3ELi1EEEEEE5coeffIlEEdT_SB_, symObjAddr: 0x5E80, symBinAddr: 0x100020494, symSize: 0x3C }
  - { offsetInCU: 0x25990, offset: 0x2DDA5, size: 0x8, addend: 0x0, symName: __ZNK5Eigen8internal15nullary_wrapperIdNS0_18scalar_constant_opIdEELb1ELb0ELb0EEclIlEEdRKS3_T_S8_, symObjAddr: 0x5EBC, symBinAddr: 0x1000204D0, symSize: 0x30 }
  - { offsetInCU: 0x259E4, offset: 0x2DDF9, size: 0x8, addend: 0x0, symName: __ZNK5Eigen8internal18scalar_constant_opIdEclEv, symObjAddr: 0x5EEC, symBinAddr: 0x100020500, symSize: 0x18 }
  - { offsetInCU: 0x25A0B, offset: 0x2DE20, size: 0x8, addend: 0x0, symName: __ZN5Eigen8internal9evaluatorINS_13CwiseBinaryOpINS0_18scalar_quotient_opIddEEKNS2_INS0_13scalar_sum_opIddEEKNS_6MatrixIdLi3ELi1ELi0ELi3ELi1EEES9_EEKNS_14CwiseNullaryOpINS0_18scalar_constant_opIdEES9_EEEEED2Ev, symObjAddr: 0x5F04, symBinAddr: 0x100020518, symSize: 0x2C }
  - { offsetInCU: 0x25A38, offset: 0x2DE4D, size: 0x8, addend: 0x0, symName: __ZN5Eigen8internal16binary_evaluatorINS_13CwiseBinaryOpINS0_18scalar_quotient_opIddEEKNS2_INS0_13scalar_sum_opIddEEKNS_6MatrixIdLi3ELi1ELi0ELi3ELi1EEES9_EEKNS_14CwiseNullaryOpINS0_18scalar_constant_opIdEES9_EEEENS0_10IndexBasedESI_ddED2Ev, symObjAddr: 0x5F30, symBinAddr: 0x100020544, symSize: 0x34 }
  - { offsetInCU: 0x25A64, offset: 0x2DE79, size: 0x8, addend: 0x0, symName: __ZN5Eigen8internal16binary_evaluatorINS_13CwiseBinaryOpINS0_18scalar_quotient_opIddEEKNS2_INS0_13scalar_sum_opIddEEKNS_6MatrixIdLi3ELi1ELi0ELi3ELi1EEES9_EEKNS_14CwiseNullaryOpINS0_18scalar_constant_opIdEES9_EEEENS0_10IndexBasedESI_ddE4DataD1Ev, symObjAddr: 0x5F64, symBinAddr: 0x100020578, symSize: 0x2C }
  - { offsetInCU: 0x25A91, offset: 0x2DEA6, size: 0x8, addend: 0x0, symName: __ZN5Eigen8internal16binary_evaluatorINS_13CwiseBinaryOpINS0_18scalar_quotient_opIddEEKNS2_INS0_13scalar_sum_opIddEEKNS_6MatrixIdLi3ELi1ELi0ELi3ELi1EEES9_EEKNS_14CwiseNullaryOpINS0_18scalar_constant_opIdEES9_EEEENS0_10IndexBasedESI_ddE4DataD2Ev, symObjAddr: 0x5F90, symBinAddr: 0x1000205A4, symSize: 0x3C }
  - { offsetInCU: 0x25ABE, offset: 0x2DED3, size: 0x8, addend: 0x0, symName: __ZN5Eigen8internal9evaluatorIKNS_14CwiseNullaryOpINS0_18scalar_constant_opIdEEKNS_6MatrixIdLi3ELi1ELi0ELi3ELi1EEEEEED1Ev, symObjAddr: 0x5FCC, symBinAddr: 0x1000205E0, symSize: 0x2C }
  - { offsetInCU: 0x25AEA, offset: 0x2DEFF, size: 0x8, addend: 0x0, symName: __ZN5Eigen8internal9evaluatorIKNS_14CwiseNullaryOpINS0_18scalar_constant_opIdEEKNS_6MatrixIdLi3ELi1ELi0ELi3ELi1EEEEEED2Ev, symObjAddr: 0x5FF8, symBinAddr: 0x10002060C, symSize: 0x2C }
  - { offsetInCU: 0x25B16, offset: 0x2DF2B, size: 0x8, addend: 0x0, symName: __ZN5Eigen8internal9evaluatorINS_14CwiseNullaryOpINS0_18scalar_constant_opIdEEKNS_6MatrixIdLi3ELi1ELi0ELi3ELi1EEEEEED2Ev, symObjAddr: 0x6024, symBinAddr: 0x100020638, symSize: 0x2C }
  - { offsetInCU: 0x25B42, offset: 0x2DF57, size: 0x8, addend: 0x0, symName: __ZN5Eigen8internal9assign_opIddEC2Ev, symObjAddr: 0x6050, symBinAddr: 0x100020664, symSize: 0x14 }
  - { offsetInCU: 0x25B6B, offset: 0x2DF80, size: 0x8, addend: 0x0, symName: __ZN5Eigen6MatrixIdLi3ELi1ELi0ELi3ELi1EEC2INS_13CwiseBinaryOpINS_8internal13scalar_sum_opIddEEKS1_S7_EEEERKNS_9EigenBaseIT_EE, symObjAddr: 0x6064, symBinAddr: 0x100020678, symSize: 0x40 }
  - { offsetInCU: 0x25BAD, offset: 0x2DFC2, size: 0x8, addend: 0x0, symName: __ZN5Eigen15PlainObjectBaseINS_6MatrixIdLi3ELi1ELi0ELi3ELi1EEEEC2INS_13CwiseBinaryOpINS_8internal13scalar_sum_opIddEEKS2_S9_EEEERKNS_9DenseBaseIT_EE, symObjAddr: 0x60A4, symBinAddr: 0x1000206B8, symSize: 0x54 }
  - { offsetInCU: 0x25BEF, offset: 0x2E004, size: 0x8, addend: 0x0, symName: __ZN5Eigen15PlainObjectBaseINS_6MatrixIdLi3ELi1ELi0ELi3ELi1EEEE10resizeLikeINS_13CwiseBinaryOpINS_8internal13scalar_sum_opIddEEKS2_S9_EEEEvRKNS_9EigenBaseIT_EE, symObjAddr: 0x60F8, symBinAddr: 0x10002070C, symSize: 0xF0 }
  - { offsetInCU: 0x25C4B, offset: 0x2E060, size: 0x8, addend: 0x0, symName: __ZN5Eigen15PlainObjectBaseINS_6MatrixIdLi3ELi1ELi0ELi3ELi1EEEE12_set_noaliasINS_13CwiseBinaryOpINS_8internal13scalar_sum_opIddEEKS2_S9_EEEERS2_RKNS_9DenseBaseIT_EE, symObjAddr: 0x61E8, symBinAddr: 0x1000207FC, symSize: 0x60 }
  - { offsetInCU: 0x25C89, offset: 0x2E09E, size: 0x8, addend: 0x0, symName: __ZN5Eigen8internal10AssignmentINS_6MatrixIdLi3ELi1ELi0ELi3ELi1EEENS_13CwiseBinaryOpINS0_13scalar_sum_opIddEEKS3_S7_EENS0_9assign_opIddEENS0_11Dense2DenseEvE3runERS3_RKS8_RKSA_, symObjAddr: 0x6284, symBinAddr: 0x100020898, symSize: 0x40 }
  - { offsetInCU: 0x25CCA, offset: 0x2E0DF, size: 0x8, addend: 0x0, symName: __ZN5Eigen8internal9evaluatorINS_13CwiseBinaryOpINS0_13scalar_sum_opIddEEKNS_6MatrixIdLi3ELi1ELi0ELi3ELi1EEES7_EEEC1ERKS8_, symObjAddr: 0x63B0, symBinAddr: 0x1000209C4, symSize: 0x34 }
  - { offsetInCU: 0x25D03, offset: 0x2E118, size: 0x8, addend: 0x0, symName: __ZN5Eigen8internal31generic_dense_assignment_kernelINS0_9evaluatorINS_6MatrixIdLi3ELi1ELi0ELi3ELi1EEEEENS2_INS_13CwiseBinaryOpINS0_13scalar_sum_opIddEEKS4_S9_EEEENS0_9assign_opIddEELi0EEC1ERS5_RKSB_RKSD_RS4_, symObjAddr: 0x64DC, symBinAddr: 0x100020AF0, symSize: 0x4C }
  - { offsetInCU: 0x25D69, offset: 0x2E17E, size: 0x8, addend: 0x0, symName: __ZN5Eigen8internal21dense_assignment_loopINS0_31generic_dense_assignment_kernelINS0_9evaluatorINS_6MatrixIdLi3ELi1ELi0ELi3ELi1EEEEENS3_INS_13CwiseBinaryOpINS0_13scalar_sum_opIddEEKS5_SA_EEEENS0_9assign_opIddEELi0EEELi3ELi2EE3runERSF_, symObjAddr: 0x6528, symBinAddr: 0x100020B3C, symSize: 0x2C }
  - { offsetInCU: 0x25D8D, offset: 0x2E1A2, size: 0x8, addend: 0x0, symName: __ZN5Eigen8internal9evaluatorINS_13CwiseBinaryOpINS0_13scalar_sum_opIddEEKNS_6MatrixIdLi3ELi1ELi0ELi3ELi1EEES7_EEED1Ev, symObjAddr: 0x6554, symBinAddr: 0x100020B68, symSize: 0x2C }
  - { offsetInCU: 0x25DBA, offset: 0x2E1CF, size: 0x8, addend: 0x0, symName: __ZN5Eigen8internal31generic_dense_assignment_kernelINS0_9evaluatorINS_6MatrixIdLi3ELi1ELi0ELi3ELi1EEEEENS2_INS_13CwiseBinaryOpINS0_13scalar_sum_opIddEEKS4_S9_EEEENS0_9assign_opIddEELi0EEC2ERS5_RKSB_RKSD_RS4_, symObjAddr: 0x6580, symBinAddr: 0x100020B94, symSize: 0x44 }
  - { offsetInCU: 0x25E1F, offset: 0x2E234, size: 0x8, addend: 0x0, symName: __ZN5Eigen8internal47copy_using_evaluator_innervec_CompleteUnrollingINS0_31generic_dense_assignment_kernelINS0_9evaluatorINS_6MatrixIdLi3ELi1ELi0ELi3ELi1EEEEENS3_INS_13CwiseBinaryOpINS0_13scalar_sum_opIddEEKS5_SA_EEEENS0_9assign_opIddEELi0EEELi0ELi2EE3runERSF_, symObjAddr: 0x65C4, symBinAddr: 0x100020BD8, symSize: 0x34 }
  - { offsetInCU: 0x25E42, offset: 0x2E257, size: 0x8, addend: 0x0, symName: __ZN5Eigen8internal55copy_using_evaluator_DefaultTraversal_CompleteUnrollingINS0_31generic_dense_assignment_kernelINS0_9evaluatorINS_6MatrixIdLi3ELi1ELi0ELi3ELi1EEEEENS3_INS_13CwiseBinaryOpINS0_13scalar_sum_opIddEEKS5_SA_EEEENS0_9assign_opIddEELi0EEELi2ELi3EE3runERSF_, symObjAddr: 0x65F8, symBinAddr: 0x100020C0C, symSize: 0x34 }
  - { offsetInCU: 0x25E64, offset: 0x2E279, size: 0x8, addend: 0x0, symName: __ZN5Eigen8internal31generic_dense_assignment_kernelINS0_9evaluatorINS_6MatrixIdLi3ELi1ELi0ELi3ELi1EEEEENS2_INS_13CwiseBinaryOpINS0_13scalar_sum_opIddEEKS4_S9_EEEENS0_9assign_opIddEELi0EE24assignPacketByOuterInnerILi0ELi0E19__simd128_float64_tEEvll, symObjAddr: 0x662C, symBinAddr: 0x100020C40, symSize: 0x60 }
  - { offsetInCU: 0x25EE4, offset: 0x2E2F9, size: 0x8, addend: 0x0, symName: __ZN5Eigen8internal47copy_using_evaluator_innervec_CompleteUnrollingINS0_31generic_dense_assignment_kernelINS0_9evaluatorINS_6MatrixIdLi3ELi1ELi0ELi3ELi1EEEEENS3_INS_13CwiseBinaryOpINS0_13scalar_sum_opIddEEKS5_SA_EEEENS0_9assign_opIddEELi0EEELi2ELi2EE3runERSF_, symObjAddr: 0x668C, symBinAddr: 0x100020CA0, symSize: 0x10 }
  - { offsetInCU: 0x25F04, offset: 0x2E319, size: 0x8, addend: 0x0, symName: __ZN5Eigen8internal31generic_dense_assignment_kernelINS0_9evaluatorINS_6MatrixIdLi3ELi1ELi0ELi3ELi1EEEEENS2_INS_13CwiseBinaryOpINS0_13scalar_sum_opIddEEKS4_S9_EEEENS0_9assign_opIddEELi0EE20rowIndexByOuterInnerEll, symObjAddr: 0x669C, symBinAddr: 0x100020CB0, symSize: 0x18 }
  - { offsetInCU: 0x25F37, offset: 0x2E34C, size: 0x8, addend: 0x0, symName: __ZN5Eigen8internal31generic_dense_assignment_kernelINS0_9evaluatorINS_6MatrixIdLi3ELi1ELi0ELi3ELi1EEEEENS2_INS_13CwiseBinaryOpINS0_13scalar_sum_opIddEEKS4_S9_EEEENS0_9assign_opIddEELi0EE20colIndexByOuterInnerEll, symObjAddr: 0x66B4, symBinAddr: 0x100020CC8, symSize: 0x18 }
  - { offsetInCU: 0x25F69, offset: 0x2E37E, size: 0x8, addend: 0x0, symName: __ZN5Eigen8internal31generic_dense_assignment_kernelINS0_9evaluatorINS_6MatrixIdLi3ELi1ELi0ELi3ELi1EEEEENS2_INS_13CwiseBinaryOpINS0_13scalar_sum_opIddEEKS4_S9_EEEENS0_9assign_opIddEELi0EE12assignPacketILi0ELi0E19__simd128_float64_tEEvll, symObjAddr: 0x66CC, symBinAddr: 0x100020CE0, symSize: 0x70 }
  - { offsetInCU: 0x25FCA, offset: 0x2E3DF, size: 0x8, addend: 0x0, symName: __ZN5Eigen8internal31generic_dense_assignment_kernelINS0_9evaluatorINS_6MatrixIdLi3ELi1ELi0ELi3ELi1EEEEENS2_INS_13CwiseBinaryOpINS0_13scalar_sum_opIddEEKS4_S9_EEEENS0_9assign_opIddEELi0EE23assignCoeffByOuterInnerEll, symObjAddr: 0x673C, symBinAddr: 0x100020D50, symSize: 0x60 }
  - { offsetInCU: 0x2602D, offset: 0x2E442, size: 0x8, addend: 0x0, symName: __ZN5Eigen8internal55copy_using_evaluator_DefaultTraversal_CompleteUnrollingINS0_31generic_dense_assignment_kernelINS0_9evaluatorINS_6MatrixIdLi3ELi1ELi0ELi3ELi1EEEEENS3_INS_13CwiseBinaryOpINS0_13scalar_sum_opIddEEKS5_SA_EEEENS0_9assign_opIddEELi0EEELi3ELi3EE3runERSF_, symObjAddr: 0x679C, symBinAddr: 0x100020DB0, symSize: 0x10 }
  - { offsetInCU: 0x2604B, offset: 0x2E460, size: 0x8, addend: 0x0, symName: __ZN5Eigen8internal31generic_dense_assignment_kernelINS0_9evaluatorINS_6MatrixIdLi3ELi1ELi0ELi3ELi1EEEEENS2_INS_13CwiseBinaryOpINS0_13scalar_sum_opIddEEKS4_S9_EEEENS0_9assign_opIddEELi0EE11assignCoeffEll, symObjAddr: 0x67AC, symBinAddr: 0x100020DC0, symSize: 0x70 }
  - { offsetInCU: 0x2608F, offset: 0x2E4A4, size: 0x8, addend: 0x0, symName: __ZN5Eigen15PlainObjectBaseINS_6MatrixIdLi3ELi1ELi0ELi3ELi1EEEE4_setIS2_EERS2_RKNS_9DenseBaseIT_EE, symObjAddr: 0x681C, symBinAddr: 0x100020E30, symSize: 0x4C }
  - { offsetInCU: 0x260CD, offset: 0x2E4E2, size: 0x8, addend: 0x0, symName: __ZN5Eigen8internal10AssignmentINS_6MatrixIdLi3ELi1ELi0ELi3ELi1EEES3_NS0_9assign_opIddEENS0_11Dense2DenseEvE3runERS3_RKS3_RKS5_, symObjAddr: 0x692C, symBinAddr: 0x100020F40, symSize: 0x40 }
  - { offsetInCU: 0x2610E, offset: 0x2E523, size: 0x8, addend: 0x0, symName: __ZN5Eigen8internal31generic_dense_assignment_kernelINS0_9evaluatorINS_6MatrixIdLi3ELi1ELi0ELi3ELi1EEEEES5_NS0_9assign_opIddEELi0EEC1ERS5_RKS5_RKS7_RS4_, symObjAddr: 0x6B50, symBinAddr: 0x100021164, symSize: 0x4C }
  - { offsetInCU: 0x26174, offset: 0x2E589, size: 0x8, addend: 0x0, symName: __ZN5Eigen8internal21dense_assignment_loopINS0_31generic_dense_assignment_kernelINS0_9evaluatorINS_6MatrixIdLi3ELi1ELi0ELi3ELi1EEEEES6_NS0_9assign_opIddEELi0EEELi3ELi2EE3runERS9_, symObjAddr: 0x6B9C, symBinAddr: 0x1000211B0, symSize: 0x2C }
  - { offsetInCU: 0x26198, offset: 0x2E5AD, size: 0x8, addend: 0x0, symName: __ZN5Eigen8internal31generic_dense_assignment_kernelINS0_9evaluatorINS_6MatrixIdLi3ELi1ELi0ELi3ELi1EEEEES5_NS0_9assign_opIddEELi0EEC2ERS5_RKS5_RKS7_RS4_, symObjAddr: 0x6BC8, symBinAddr: 0x1000211DC, symSize: 0x44 }
  - { offsetInCU: 0x261FD, offset: 0x2E612, size: 0x8, addend: 0x0, symName: __ZN5Eigen8internal47copy_using_evaluator_innervec_CompleteUnrollingINS0_31generic_dense_assignment_kernelINS0_9evaluatorINS_6MatrixIdLi3ELi1ELi0ELi3ELi1EEEEES6_NS0_9assign_opIddEELi0EEELi0ELi2EE3runERS9_, symObjAddr: 0x6C0C, symBinAddr: 0x100021220, symSize: 0x34 }
  - { offsetInCU: 0x26220, offset: 0x2E635, size: 0x8, addend: 0x0, symName: __ZN5Eigen8internal55copy_using_evaluator_DefaultTraversal_CompleteUnrollingINS0_31generic_dense_assignment_kernelINS0_9evaluatorINS_6MatrixIdLi3ELi1ELi0ELi3ELi1EEEEES6_NS0_9assign_opIddEELi0EEELi2ELi3EE3runERS9_, symObjAddr: 0x6C40, symBinAddr: 0x100021254, symSize: 0x34 }
  - { offsetInCU: 0x26242, offset: 0x2E657, size: 0x8, addend: 0x0, symName: __ZN5Eigen8internal31generic_dense_assignment_kernelINS0_9evaluatorINS_6MatrixIdLi3ELi1ELi0ELi3ELi1EEEEES5_NS0_9assign_opIddEELi0EE24assignPacketByOuterInnerILi0ELi0E19__simd128_float64_tEEvll, symObjAddr: 0x6C74, symBinAddr: 0x100021288, symSize: 0x60 }
  - { offsetInCU: 0x262C2, offset: 0x2E6D7, size: 0x8, addend: 0x0, symName: __ZN5Eigen8internal47copy_using_evaluator_innervec_CompleteUnrollingINS0_31generic_dense_assignment_kernelINS0_9evaluatorINS_6MatrixIdLi3ELi1ELi0ELi3ELi1EEEEES6_NS0_9assign_opIddEELi0EEELi2ELi2EE3runERS9_, symObjAddr: 0x6CD4, symBinAddr: 0x1000212E8, symSize: 0x10 }
  - { offsetInCU: 0x262E2, offset: 0x2E6F7, size: 0x8, addend: 0x0, symName: __ZN5Eigen8internal31generic_dense_assignment_kernelINS0_9evaluatorINS_6MatrixIdLi3ELi1ELi0ELi3ELi1EEEEES5_NS0_9assign_opIddEELi0EE20rowIndexByOuterInnerEll, symObjAddr: 0x6CE4, symBinAddr: 0x1000212F8, symSize: 0x18 }
  - { offsetInCU: 0x26315, offset: 0x2E72A, size: 0x8, addend: 0x0, symName: __ZN5Eigen8internal31generic_dense_assignment_kernelINS0_9evaluatorINS_6MatrixIdLi3ELi1ELi0ELi3ELi1EEEEES5_NS0_9assign_opIddEELi0EE20colIndexByOuterInnerEll, symObjAddr: 0x6CFC, symBinAddr: 0x100021310, symSize: 0x18 }
  - { offsetInCU: 0x26347, offset: 0x2E75C, size: 0x8, addend: 0x0, symName: __ZN5Eigen8internal31generic_dense_assignment_kernelINS0_9evaluatorINS_6MatrixIdLi3ELi1ELi0ELi3ELi1EEEEES5_NS0_9assign_opIddEELi0EE12assignPacketILi0ELi0E19__simd128_float64_tEEvll, symObjAddr: 0x6D14, symBinAddr: 0x100021328, symSize: 0x70 }
  - { offsetInCU: 0x263A8, offset: 0x2E7BD, size: 0x8, addend: 0x0, symName: __ZN5Eigen8internal31generic_dense_assignment_kernelINS0_9evaluatorINS_6MatrixIdLi3ELi1ELi0ELi3ELi1EEEEES5_NS0_9assign_opIddEELi0EE23assignCoeffByOuterInnerEll, symObjAddr: 0x6D84, symBinAddr: 0x100021398, symSize: 0x60 }
  - { offsetInCU: 0x2640B, offset: 0x2E820, size: 0x8, addend: 0x0, symName: __ZN5Eigen8internal55copy_using_evaluator_DefaultTraversal_CompleteUnrollingINS0_31generic_dense_assignment_kernelINS0_9evaluatorINS_6MatrixIdLi3ELi1ELi0ELi3ELi1EEEEES6_NS0_9assign_opIddEELi0EEELi3ELi3EE3runERS9_, symObjAddr: 0x6DE4, symBinAddr: 0x1000213F8, symSize: 0x10 }
  - { offsetInCU: 0x26429, offset: 0x2E83E, size: 0x8, addend: 0x0, symName: __ZN5Eigen8internal31generic_dense_assignment_kernelINS0_9evaluatorINS_6MatrixIdLi3ELi1ELi0ELi3ELi1EEEEES5_NS0_9assign_opIddEELi0EE11assignCoeffEll, symObjAddr: 0x6DF4, symBinAddr: 0x100021408, symSize: 0x6C }
  - { offsetInCU: 0x2646D, offset: 0x2E882, size: 0x8, addend: 0x0, symName: __ZN5Eigen8internal11dot_nocheckINS_6MatrixIdLi3ELi1ELi0ELi3ELi1EEES3_Lb0EE3runERKNS_10MatrixBaseIS3_EES8_, symObjAddr: 0x6E60, symBinAddr: 0x100021474, symSize: 0x5C }
  - { offsetInCU: 0x2649D, offset: 0x2E8B2, size: 0x8, addend: 0x0, symName: __ZNK5Eigen10MatrixBaseINS_6MatrixIdLi3ELi1ELi0ELi3ELi1EEEE10binaryExprINS_8internal22scalar_conj_product_opIddEES2_EEKNS_13CwiseBinaryOpIT_KS2_KT0_EERKNS0_ISB_EERKS9_, symObjAddr: 0x6EBC, symBinAddr: 0x1000214D0, symSize: 0x54 }
  - { offsetInCU: 0x264F1, offset: 0x2E906, size: 0x8, addend: 0x0, symName: __ZN5Eigen8internal22scalar_conj_product_opIddEC1Ev, symObjAddr: 0x6F10, symBinAddr: 0x100021524, symSize: 0x2C }
  - { offsetInCU: 0x2651C, offset: 0x2E931, size: 0x8, addend: 0x0, symName: __ZNK5Eigen9DenseBaseINS_13CwiseBinaryOpINS_8internal22scalar_conj_product_opIddEEKNS_6MatrixIdLi3ELi1ELi0ELi3ELi1EEES7_EEE3sumEv, symObjAddr: 0x6F3C, symBinAddr: 0x100021550, symSize: 0x40 }
  - { offsetInCU: 0x26544, offset: 0x2E959, size: 0x8, addend: 0x0, symName: __ZN5Eigen13CwiseBinaryOpINS_8internal22scalar_conj_product_opIddEEKNS_6MatrixIdLi3ELi1ELi0ELi3ELi1EEES6_EC1ERS6_S8_RKS3_, symObjAddr: 0x6F7C, symBinAddr: 0x100021590, symSize: 0x44 }
  - { offsetInCU: 0x26598, offset: 0x2E9AD, size: 0x8, addend: 0x0, symName: __ZN5Eigen13CwiseBinaryOpINS_8internal22scalar_conj_product_opIddEEKNS_6MatrixIdLi3ELi1ELi0ELi3ELi1EEES6_EC2ERS6_S8_RKS3_, symObjAddr: 0x6FC0, symBinAddr: 0x1000215D4, symSize: 0xF0 }
  - { offsetInCU: 0x265F2, offset: 0x2EA07, size: 0x8, addend: 0x0, symName: __ZN5Eigen17CwiseBinaryOpImplINS_8internal22scalar_conj_product_opIddEEKNS_6MatrixIdLi3ELi1ELi0ELi3ELi1EEES6_NS_5DenseEEC2Ev, symObjAddr: 0x70B0, symBinAddr: 0x1000216C4, symSize: 0x2C }
  - { offsetInCU: 0x2661D, offset: 0x2EA32, size: 0x8, addend: 0x0, symName: __ZN5Eigen8internal22scalar_conj_product_opIddEC1ERKS2_, symObjAddr: 0x70DC, symBinAddr: 0x1000216F0, symSize: 0x34 }
  - { offsetInCU: 0x26651, offset: 0x2EA66, size: 0x8, addend: 0x0, symName: __ZN5Eigen10MatrixBaseINS_13CwiseBinaryOpINS_8internal22scalar_conj_product_opIddEEKNS_6MatrixIdLi3ELi1ELi0ELi3ELi1EEES7_EEEC2Ev, symObjAddr: 0x7110, symBinAddr: 0x100021724, symSize: 0x2C }
  - { offsetInCU: 0x2667C, offset: 0x2EA91, size: 0x8, addend: 0x0, symName: __ZN5Eigen9DenseBaseINS_13CwiseBinaryOpINS_8internal22scalar_conj_product_opIddEEKNS_6MatrixIdLi3ELi1ELi0ELi3ELi1EEES7_EEEC2Ev, symObjAddr: 0x713C, symBinAddr: 0x100021750, symSize: 0x14 }
  - { offsetInCU: 0x266A6, offset: 0x2EABB, size: 0x8, addend: 0x0, symName: __ZN5Eigen8internal22scalar_conj_product_opIddEC2ERKS2_, symObjAddr: 0x7150, symBinAddr: 0x100021764, symSize: 0x18 }
  - { offsetInCU: 0x266DA, offset: 0x2EAEF, size: 0x8, addend: 0x0, symName: __ZN5Eigen8internal22scalar_conj_product_opIddEC2Ev, symObjAddr: 0x7168, symBinAddr: 0x10002177C, symSize: 0x14 }
  - { offsetInCU: 0x26703, offset: 0x2EB18, size: 0x8, addend: 0x0, symName: __ZNK5Eigen9EigenBaseINS_13CwiseBinaryOpINS_8internal22scalar_conj_product_opIddEEKNS_6MatrixIdLi3ELi1ELi0ELi3ELi1EEES7_EEE7derivedEv, symObjAddr: 0x717C, symBinAddr: 0x100021790, symSize: 0x14 }
  - { offsetInCU: 0x2672A, offset: 0x2EB3F, size: 0x8, addend: 0x0, symName: __ZNK5Eigen9DenseBaseINS_13CwiseBinaryOpINS_8internal22scalar_conj_product_opIddEEKNS_6MatrixIdLi3ELi1ELi0ELi3ELi1EEES7_EEE5reduxINS2_13scalar_sum_opIddEEEEdRKT_, symObjAddr: 0x7190, symBinAddr: 0x1000217A4, symSize: 0x10C }
  - { offsetInCU: 0x26785, offset: 0x2EB9A, size: 0x8, addend: 0x0, symName: __ZNK5Eigen9EigenBaseINS_13CwiseBinaryOpINS_8internal22scalar_conj_product_opIddEEKNS_6MatrixIdLi3ELi1ELi0ELi3ELi1EEES7_EEE4rowsEv, symObjAddr: 0x729C, symBinAddr: 0x1000218B0, symSize: 0x28 }
  - { offsetInCU: 0x267AB, offset: 0x2EBC0, size: 0x8, addend: 0x0, symName: __ZNK5Eigen9EigenBaseINS_13CwiseBinaryOpINS_8internal22scalar_conj_product_opIddEEKNS_6MatrixIdLi3ELi1ELi0ELi3ELi1EEES7_EEE4colsEv, symObjAddr: 0x72C4, symBinAddr: 0x1000218D8, symSize: 0x28 }
  - { offsetInCU: 0x267D1, offset: 0x2EBE6, size: 0x8, addend: 0x0, symName: __ZN5Eigen8internal15redux_evaluatorINS_13CwiseBinaryOpINS0_22scalar_conj_product_opIddEEKNS_6MatrixIdLi3ELi1ELi0ELi3ELi1EEES7_EEEC1ERKS8_, symObjAddr: 0x72EC, symBinAddr: 0x100021900, symSize: 0x34 }
  - { offsetInCU: 0x2680A, offset: 0x2EC1F, size: 0x8, addend: 0x0, symName: __ZN5Eigen8internal10redux_implINS0_13scalar_sum_opIddEENS0_15redux_evaluatorINS_13CwiseBinaryOpINS0_22scalar_conj_product_opIddEEKNS_6MatrixIdLi3ELi1ELi0ELi3ELi1EEESA_EEEELi3ELi2EE3runISB_EEdRKSC_RKS3_RKT_, symObjAddr: 0x7320, symBinAddr: 0x100021934, symSize: 0x100 }
  - { offsetInCU: 0x26872, offset: 0x2EC87, size: 0x8, addend: 0x0, symName: __ZN5Eigen8internal15redux_evaluatorINS_13CwiseBinaryOpINS0_22scalar_conj_product_opIddEEKNS_6MatrixIdLi3ELi1ELi0ELi3ELi1EEES7_EEED1Ev, symObjAddr: 0x7420, symBinAddr: 0x100021A34, symSize: 0x2C }
  - { offsetInCU: 0x2689E, offset: 0x2ECB3, size: 0x8, addend: 0x0, symName: __ZNK5Eigen13CwiseBinaryOpINS_8internal22scalar_conj_product_opIddEEKNS_6MatrixIdLi3ELi1ELi0ELi3ELi1EEES6_E4rowsEv, symObjAddr: 0x744C, symBinAddr: 0x100021A60, symSize: 0x28 }
  - { offsetInCU: 0x268C4, offset: 0x2ECD9, size: 0x8, addend: 0x0, symName: __ZNK5Eigen13CwiseBinaryOpINS_8internal22scalar_conj_product_opIddEEKNS_6MatrixIdLi3ELi1ELi0ELi3ELi1EEES6_E4colsEv, symObjAddr: 0x7474, symBinAddr: 0x100021A88, symSize: 0x28 }
  - { offsetInCU: 0x268EA, offset: 0x2ECFF, size: 0x8, addend: 0x0, symName: __ZN5Eigen8internal15redux_evaluatorINS_13CwiseBinaryOpINS0_22scalar_conj_product_opIddEEKNS_6MatrixIdLi3ELi1ELi0ELi3ELi1EEES7_EEEC2ERKS8_, symObjAddr: 0x749C, symBinAddr: 0x100021AB0, symSize: 0x34 }
  - { offsetInCU: 0x26923, offset: 0x2ED38, size: 0x8, addend: 0x0, symName: __ZN5Eigen8internal9evaluatorINS_13CwiseBinaryOpINS0_22scalar_conj_product_opIddEEKNS_6MatrixIdLi3ELi1ELi0ELi3ELi1EEES7_EEEC2ERKS8_, symObjAddr: 0x74D0, symBinAddr: 0x100021AE4, symSize: 0x34 }
  - { offsetInCU: 0x2695C, offset: 0x2ED71, size: 0x8, addend: 0x0, symName: __ZN5Eigen8internal16binary_evaluatorINS_13CwiseBinaryOpINS0_22scalar_conj_product_opIddEEKNS_6MatrixIdLi3ELi1ELi0ELi3ELi1EEES7_EENS0_10IndexBasedES9_ddEC2ERKS8_, symObjAddr: 0x7504, symBinAddr: 0x100021B18, symSize: 0x64 }
  - { offsetInCU: 0x26996, offset: 0x2EDAB, size: 0x8, addend: 0x0, symName: __ZN5Eigen8internal14evaluator_baseINS_13CwiseBinaryOpINS0_22scalar_conj_product_opIddEEKNS_6MatrixIdLi3ELi1ELi0ELi3ELi1EEES7_EEEC2Ev, symObjAddr: 0x7568, symBinAddr: 0x100021B7C, symSize: 0x14 }
  - { offsetInCU: 0x269BF, offset: 0x2EDD4, size: 0x8, addend: 0x0, symName: __ZN5Eigen8internal16binary_evaluatorINS_13CwiseBinaryOpINS0_22scalar_conj_product_opIddEEKNS_6MatrixIdLi3ELi1ELi0ELi3ELi1EEES7_EENS0_10IndexBasedES9_ddE4DataC1ERKS8_, symObjAddr: 0x757C, symBinAddr: 0x100021B90, symSize: 0x34 }
  - { offsetInCU: 0x269F9, offset: 0x2EE0E, size: 0x8, addend: 0x0, symName: __ZN5Eigen8internal14evaluator_baseINS_13CwiseBinaryOpINS0_22scalar_conj_product_opIddEEKNS_6MatrixIdLi3ELi1ELi0ELi3ELi1EEES7_EEED2Ev, symObjAddr: 0x75B0, symBinAddr: 0x100021BC4, symSize: 0x14 }
  - { offsetInCU: 0x26A22, offset: 0x2EE37, size: 0x8, addend: 0x0, symName: __ZN5Eigen8internal16binary_evaluatorINS_13CwiseBinaryOpINS0_22scalar_conj_product_opIddEEKNS_6MatrixIdLi3ELi1ELi0ELi3ELi1EEES7_EENS0_10IndexBasedES9_ddE4DataC2ERKS8_, symObjAddr: 0x75C4, symBinAddr: 0x100021BD8, symSize: 0xA8 }
  - { offsetInCU: 0x26A5B, offset: 0x2EE70, size: 0x8, addend: 0x0, symName: __ZNK5Eigen13CwiseBinaryOpINS_8internal22scalar_conj_product_opIddEEKNS_6MatrixIdLi3ELi1ELi0ELi3ELi1EEES6_E7functorEv, symObjAddr: 0x766C, symBinAddr: 0x100021C80, symSize: 0x18 }
  - { offsetInCU: 0x26A81, offset: 0x2EE96, size: 0x8, addend: 0x0, symName: __ZNK5Eigen13CwiseBinaryOpINS_8internal22scalar_conj_product_opIddEEKNS_6MatrixIdLi3ELi1ELi0ELi3ELi1EEES6_E3lhsEv, symObjAddr: 0x7684, symBinAddr: 0x100021C98, symSize: 0x18 }
  - { offsetInCU: 0x26AA7, offset: 0x2EEBC, size: 0x8, addend: 0x0, symName: __ZNK5Eigen13CwiseBinaryOpINS_8internal22scalar_conj_product_opIddEEKNS_6MatrixIdLi3ELi1ELi0ELi3ELi1EEES6_E3rhsEv, symObjAddr: 0x769C, symBinAddr: 0x100021CB0, symSize: 0x18 }
  - { offsetInCU: 0x26ACD, offset: 0x2EEE2, size: 0x8, addend: 0x0, symName: __ZN5Eigen8internal20redux_novec_unrollerINS0_13scalar_sum_opIddEENS0_15redux_evaluatorINS_13CwiseBinaryOpINS0_22scalar_conj_product_opIddEEKNS_6MatrixIdLi3ELi1ELi0ELi3ELi1EEESA_EEEELi2ELi1EE3runERKSC_RKS3_, symObjAddr: 0x76E4, symBinAddr: 0x100021CF8, symSize: 0x30 }
  - { offsetInCU: 0x26AF9, offset: 0x2EF0E, size: 0x8, addend: 0x0, symName: __ZNK5Eigen8internal15redux_evaluatorINS_13CwiseBinaryOpINS0_22scalar_conj_product_opIddEEKNS_6MatrixIdLi3ELi1ELi0ELi3ELi1EEES7_EEE18packetByOuterInnerILi0E19__simd128_float64_tEET0_ll, symObjAddr: 0x7714, symBinAddr: 0x100021D28, symSize: 0x34 }
  - { offsetInCU: 0x26B50, offset: 0x2EF65, size: 0x8, addend: 0x0, symName: __ZNK5Eigen8internal16binary_evaluatorINS_13CwiseBinaryOpINS0_22scalar_conj_product_opIddEEKNS_6MatrixIdLi3ELi1ELi0ELi3ELi1EEES7_EENS0_10IndexBasedES9_ddE6packetILi0E19__simd128_float64_tEET0_ll, symObjAddr: 0x7748, symBinAddr: 0x100021D5C, symSize: 0x7C }
  - { offsetInCU: 0x26BA7, offset: 0x2EFBC, size: 0x8, addend: 0x0, symName: __ZNK5Eigen8internal16binary_evaluatorINS_13CwiseBinaryOpINS0_22scalar_conj_product_opIddEEKNS_6MatrixIdLi3ELi1ELi0ELi3ELi1EEES7_EENS0_10IndexBasedES9_ddE4Data4funcEv, symObjAddr: 0x77C4, symBinAddr: 0x100021DD8, symSize: 0x14 }
  - { offsetInCU: 0x26BCD, offset: 0x2EFE2, size: 0x8, addend: 0x0, symName: __ZNK5Eigen8internal22scalar_conj_product_opIddE8packetOpI19__simd128_float64_tEET_RKS5_S7_, symObjAddr: 0x77D8, symBinAddr: 0x100021DEC, symSize: 0x34 }
  - { offsetInCU: 0x26C22, offset: 0x2F037, size: 0x8, addend: 0x0, symName: __ZNK5Eigen8internal11conj_helperI19__simd128_float64_tS2_Lb0ELb0EE4pmulERKS2_S5_, symObjAddr: 0x780C, symBinAddr: 0x100021E20, symSize: 0x4C }
  - { offsetInCU: 0x26C6E, offset: 0x2F083, size: 0x8, addend: 0x0, symName: __ZNK5Eigen8internal7conj_ifILb0EE5pconjI19__simd128_float64_tEERKT_S7_, symObjAddr: 0x7858, symBinAddr: 0x100021E6C, symSize: 0x18 }
  - { offsetInCU: 0x26CAB, offset: 0x2F0C0, size: 0x8, addend: 0x0, symName: __ZNK5Eigen8internal15redux_evaluatorINS_13CwiseBinaryOpINS0_22scalar_conj_product_opIddEEKNS_6MatrixIdLi3ELi1ELi0ELi3ELi1EEES7_EEE17coeffByOuterInnerEll, symObjAddr: 0x7870, symBinAddr: 0x100021E84, symSize: 0x34 }
  - { offsetInCU: 0x26CEF, offset: 0x2F104, size: 0x8, addend: 0x0, symName: __ZNK5Eigen8internal16binary_evaluatorINS_13CwiseBinaryOpINS0_22scalar_conj_product_opIddEEKNS_6MatrixIdLi3ELi1ELi0ELi3ELi1EEES7_EENS0_10IndexBasedES9_ddE5coeffEll, symObjAddr: 0x78A4, symBinAddr: 0x100021EB8, symSize: 0x70 }
  - { offsetInCU: 0x26D33, offset: 0x2F148, size: 0x8, addend: 0x0, symName: __ZNK5Eigen8internal22scalar_conj_product_opIddEclERKdS4_, symObjAddr: 0x7914, symBinAddr: 0x100021F28, symSize: 0x34 }
  - { offsetInCU: 0x26D7F, offset: 0x2F194, size: 0x8, addend: 0x0, symName: __ZNK5Eigen8internal11conj_helperIddLb0ELb0EE4pmulERKdS4_, symObjAddr: 0x7948, symBinAddr: 0x100021F5C, symSize: 0x4C }
  - { offsetInCU: 0x26DC1, offset: 0x2F1D6, size: 0x8, addend: 0x0, symName: __ZNK5Eigen8internal7conj_ifILb0EE5pconjIdEERKT_S6_, symObjAddr: 0x79BC, symBinAddr: 0x100021FD0, symSize: 0x18 }
  - { offsetInCU: 0x26DFF, offset: 0x2F214, size: 0x8, addend: 0x0, symName: __ZN5Eigen8internal15redux_evaluatorINS_13CwiseBinaryOpINS0_22scalar_conj_product_opIddEEKNS_6MatrixIdLi3ELi1ELi0ELi3ELi1EEES7_EEED2Ev, symObjAddr: 0x79D4, symBinAddr: 0x100021FE8, symSize: 0x2C }
  - { offsetInCU: 0x26E2C, offset: 0x2F241, size: 0x8, addend: 0x0, symName: __ZN5Eigen8internal9evaluatorINS_13CwiseBinaryOpINS0_22scalar_conj_product_opIddEEKNS_6MatrixIdLi3ELi1ELi0ELi3ELi1EEES7_EEED2Ev, symObjAddr: 0x7A00, symBinAddr: 0x100022014, symSize: 0x2C }
  - { offsetInCU: 0x26E59, offset: 0x2F26E, size: 0x8, addend: 0x0, symName: __ZN5Eigen8internal16binary_evaluatorINS_13CwiseBinaryOpINS0_22scalar_conj_product_opIddEEKNS_6MatrixIdLi3ELi1ELi0ELi3ELi1EEES7_EENS0_10IndexBasedES9_ddED2Ev, symObjAddr: 0x7A2C, symBinAddr: 0x100022040, symSize: 0x34 }
  - { offsetInCU: 0x26E85, offset: 0x2F29A, size: 0x8, addend: 0x0, symName: __ZN5Eigen8internal16binary_evaluatorINS_13CwiseBinaryOpINS0_22scalar_conj_product_opIddEEKNS_6MatrixIdLi3ELi1ELi0ELi3ELi1EEES7_EENS0_10IndexBasedES9_ddE4DataD1Ev, symObjAddr: 0x7A60, symBinAddr: 0x100022074, symSize: 0x2C }
  - { offsetInCU: 0x26EB2, offset: 0x2F2C7, size: 0x8, addend: 0x0, symName: __ZN5Eigen8internal16binary_evaluatorINS_13CwiseBinaryOpINS0_22scalar_conj_product_opIddEEKNS_6MatrixIdLi3ELi1ELi0ELi3ELi1EEES7_EENS0_10IndexBasedES9_ddE4DataD2Ev, symObjAddr: 0x7A8C, symBinAddr: 0x1000220A0, symSize: 0x3C }
  - { offsetInCU: 0x26EDE, offset: 0x2F2F3, size: 0x8, addend: 0x0, symName: __ZN5Eigen8internal20scalar_difference_opIddEC1Ev, symObjAddr: 0x7AC8, symBinAddr: 0x1000220DC, symSize: 0x2C }
  - { offsetInCU: 0x26F08, offset: 0x2F31D, size: 0x8, addend: 0x0, symName: __ZN5Eigen13CwiseBinaryOpINS_8internal20scalar_difference_opIddEEKNS_6MatrixIdLi3ELi1ELi0ELi3ELi1EEES6_EC1ERS6_S8_RKS3_, symObjAddr: 0x7AF4, symBinAddr: 0x100022108, symSize: 0x44 }
  - { offsetInCU: 0x26F5D, offset: 0x2F372, size: 0x8, addend: 0x0, symName: __ZN5Eigen8internal20scalar_difference_opIddEC2Ev, symObjAddr: 0x7B38, symBinAddr: 0x10002214C, symSize: 0x14 }
  - { offsetInCU: 0x26F86, offset: 0x2F39B, size: 0x8, addend: 0x0, symName: __ZN5Eigen13CwiseBinaryOpINS_8internal20scalar_difference_opIddEEKNS_6MatrixIdLi3ELi1ELi0ELi3ELi1EEES6_EC2ERS6_S8_RKS3_, symObjAddr: 0x7B4C, symBinAddr: 0x100022160, symSize: 0xF0 }
  - { offsetInCU: 0x26FE0, offset: 0x2F3F5, size: 0x8, addend: 0x0, symName: __ZN5Eigen17CwiseBinaryOpImplINS_8internal20scalar_difference_opIddEEKNS_6MatrixIdLi3ELi1ELi0ELi3ELi1EEES6_NS_5DenseEEC2Ev, symObjAddr: 0x7C3C, symBinAddr: 0x100022250, symSize: 0x2C }
  - { offsetInCU: 0x2700B, offset: 0x2F420, size: 0x8, addend: 0x0, symName: __ZN5Eigen8internal20scalar_difference_opIddEC1ERKS2_, symObjAddr: 0x7C68, symBinAddr: 0x10002227C, symSize: 0x34 }
  - { offsetInCU: 0x27040, offset: 0x2F455, size: 0x8, addend: 0x0, symName: __ZN5Eigen10MatrixBaseINS_13CwiseBinaryOpINS_8internal20scalar_difference_opIddEEKNS_6MatrixIdLi3ELi1ELi0ELi3ELi1EEES7_EEEC2Ev, symObjAddr: 0x7C9C, symBinAddr: 0x1000222B0, symSize: 0x2C }
  - { offsetInCU: 0x2706B, offset: 0x2F480, size: 0x8, addend: 0x0, symName: __ZN5Eigen9DenseBaseINS_13CwiseBinaryOpINS_8internal20scalar_difference_opIddEEKNS_6MatrixIdLi3ELi1ELi0ELi3ELi1EEES7_EEEC2Ev, symObjAddr: 0x7CC8, symBinAddr: 0x1000222DC, symSize: 0x14 }
  - { offsetInCU: 0x27095, offset: 0x2F4AA, size: 0x8, addend: 0x0, symName: __ZN5Eigen8internal20scalar_difference_opIddEC2ERKS2_, symObjAddr: 0x7CDC, symBinAddr: 0x1000222F0, symSize: 0x18 }
  - { offsetInCU: 0x270C9, offset: 0x2F4DE, size: 0x8, addend: 0x0, symName: __ZNK5Eigen9EigenBaseINS_13CwiseBinaryOpINS_8internal20scalar_difference_opIddEEKNS_6MatrixIdLi3ELi1ELi0ELi3ELi1EEES7_EEE7derivedEv, symObjAddr: 0x7CF4, symBinAddr: 0x100022308, symSize: 0x14 }
  - { offsetInCU: 0x270F0, offset: 0x2F505, size: 0x8, addend: 0x0, symName: __ZN5Eigen13CwiseBinaryOpINS_8internal20scalar_difference_opIddEEKNS_6MatrixIdLi3ELi1ELi0ELi3ELi1EEES6_EC1ERKS7_, symObjAddr: 0x7D08, symBinAddr: 0x10002231C, symSize: 0x34 }
  - { offsetInCU: 0x27124, offset: 0x2F539, size: 0x8, addend: 0x0, symName: __ZNK5Eigen15DenseCoeffsBaseINS_13CwiseBinaryOpINS_8internal20scalar_difference_opIddEEKNS_6MatrixIdLi3ELi1ELi0ELi3ELi1EEES7_EELi0EE5coeffEl, symObjAddr: 0x7D60, symBinAddr: 0x100022374, symSize: 0x78 }
  - { offsetInCU: 0x27158, offset: 0x2F56D, size: 0x8, addend: 0x0, symName: __ZN5Eigen6MatrixIdLi3ELi1ELi0ELi3ELi1EEC1ERKdS3_S3_, symObjAddr: 0x7DD8, symBinAddr: 0x1000223EC, symSize: 0x44 }
  - { offsetInCU: 0x271B0, offset: 0x2F5C5, size: 0x8, addend: 0x0, symName: __ZN5Eigen13CwiseBinaryOpINS_8internal20scalar_difference_opIddEEKNS_6MatrixIdLi3ELi1ELi0ELi3ELi1EEES6_EC2ERKS7_, symObjAddr: 0x7E1C, symBinAddr: 0x100022430, symSize: 0x48 }
  - { offsetInCU: 0x271E5, offset: 0x2F5FA, size: 0x8, addend: 0x0, symName: __ZN5Eigen8internal17conj_default_implIdLb0EE3runERKd, symObjAddr: 0x7E64, symBinAddr: 0x100022478, symSize: 0x18 }
  - { offsetInCU: 0x27207, offset: 0x2F61C, size: 0x8, addend: 0x0, symName: __ZN5Eigen8internal9evaluatorINS_13CwiseBinaryOpINS0_20scalar_difference_opIddEEKNS_6MatrixIdLi3ELi1ELi0ELi3ELi1EEES7_EEEC1ERKS8_, symObjAddr: 0x7E7C, symBinAddr: 0x100022490, symSize: 0x34 }
  - { offsetInCU: 0x27240, offset: 0x2F655, size: 0x8, addend: 0x0, symName: __ZNK5Eigen8internal16binary_evaluatorINS_13CwiseBinaryOpINS0_20scalar_difference_opIddEEKNS_6MatrixIdLi3ELi1ELi0ELi3ELi1EEES7_EENS0_10IndexBasedES9_ddE5coeffEl, symObjAddr: 0x7EB0, symBinAddr: 0x1000224C4, symSize: 0x64 }
  - { offsetInCU: 0x27276, offset: 0x2F68B, size: 0x8, addend: 0x0, symName: __ZN5Eigen8internal9evaluatorINS_13CwiseBinaryOpINS0_20scalar_difference_opIddEEKNS_6MatrixIdLi3ELi1ELi0ELi3ELi1EEES7_EEED1Ev, symObjAddr: 0x7F14, symBinAddr: 0x100022528, symSize: 0x2C }
  - { offsetInCU: 0x272A2, offset: 0x2F6B7, size: 0x8, addend: 0x0, symName: __ZN5Eigen8internal9evaluatorINS_13CwiseBinaryOpINS0_20scalar_difference_opIddEEKNS_6MatrixIdLi3ELi1ELi0ELi3ELi1EEES7_EEEC2ERKS8_, symObjAddr: 0x7F40, symBinAddr: 0x100022554, symSize: 0x34 }
  - { offsetInCU: 0x272DB, offset: 0x2F6F0, size: 0x8, addend: 0x0, symName: __ZN5Eigen8internal16binary_evaluatorINS_13CwiseBinaryOpINS0_20scalar_difference_opIddEEKNS_6MatrixIdLi3ELi1ELi0ELi3ELi1EEES7_EENS0_10IndexBasedES9_ddEC2ERKS8_, symObjAddr: 0x7F74, symBinAddr: 0x100022588, symSize: 0x64 }
  - { offsetInCU: 0x27315, offset: 0x2F72A, size: 0x8, addend: 0x0, symName: __ZN5Eigen8internal14evaluator_baseINS_13CwiseBinaryOpINS0_20scalar_difference_opIddEEKNS_6MatrixIdLi3ELi1ELi0ELi3ELi1EEES7_EEEC2Ev, symObjAddr: 0x7FD8, symBinAddr: 0x1000225EC, symSize: 0x14 }
  - { offsetInCU: 0x2733E, offset: 0x2F753, size: 0x8, addend: 0x0, symName: __ZN5Eigen8internal16binary_evaluatorINS_13CwiseBinaryOpINS0_20scalar_difference_opIddEEKNS_6MatrixIdLi3ELi1ELi0ELi3ELi1EEES7_EENS0_10IndexBasedES9_ddE4DataC1ERKS8_, symObjAddr: 0x7FEC, symBinAddr: 0x100022600, symSize: 0x34 }
  - { offsetInCU: 0x27378, offset: 0x2F78D, size: 0x8, addend: 0x0, symName: __ZN5Eigen8internal14evaluator_baseINS_13CwiseBinaryOpINS0_20scalar_difference_opIddEEKNS_6MatrixIdLi3ELi1ELi0ELi3ELi1EEES7_EEED2Ev, symObjAddr: 0x8020, symBinAddr: 0x100022634, symSize: 0x14 }
  - { offsetInCU: 0x273A1, offset: 0x2F7B6, size: 0x8, addend: 0x0, symName: __ZN5Eigen8internal16binary_evaluatorINS_13CwiseBinaryOpINS0_20scalar_difference_opIddEEKNS_6MatrixIdLi3ELi1ELi0ELi3ELi1EEES7_EENS0_10IndexBasedES9_ddE4DataC2ERKS8_, symObjAddr: 0x8034, symBinAddr: 0x100022648, symSize: 0xA8 }
  - { offsetInCU: 0x273DA, offset: 0x2F7EF, size: 0x8, addend: 0x0, symName: __ZNK5Eigen13CwiseBinaryOpINS_8internal20scalar_difference_opIddEEKNS_6MatrixIdLi3ELi1ELi0ELi3ELi1EEES6_E7functorEv, symObjAddr: 0x80DC, symBinAddr: 0x1000226F0, symSize: 0x18 }
  - { offsetInCU: 0x27400, offset: 0x2F815, size: 0x8, addend: 0x0, symName: __ZNK5Eigen13CwiseBinaryOpINS_8internal20scalar_difference_opIddEEKNS_6MatrixIdLi3ELi1ELi0ELi3ELi1EEES6_E3lhsEv, symObjAddr: 0x80F4, symBinAddr: 0x100022708, symSize: 0x18 }
  - { offsetInCU: 0x27426, offset: 0x2F83B, size: 0x8, addend: 0x0, symName: __ZNK5Eigen13CwiseBinaryOpINS_8internal20scalar_difference_opIddEEKNS_6MatrixIdLi3ELi1ELi0ELi3ELi1EEES6_E3rhsEv, symObjAddr: 0x810C, symBinAddr: 0x100022720, symSize: 0x18 }
  - { offsetInCU: 0x2744C, offset: 0x2F861, size: 0x8, addend: 0x0, symName: __ZNK5Eigen8internal16binary_evaluatorINS_13CwiseBinaryOpINS0_20scalar_difference_opIddEEKNS_6MatrixIdLi3ELi1ELi0ELi3ELi1EEES7_EENS0_10IndexBasedES9_ddE4Data4funcEv, symObjAddr: 0x8124, symBinAddr: 0x100022738, symSize: 0x14 }
  - { offsetInCU: 0x27472, offset: 0x2F887, size: 0x8, addend: 0x0, symName: __ZNK5Eigen8internal20scalar_difference_opIddEclERKdS4_, symObjAddr: 0x8138, symBinAddr: 0x10002274C, symSize: 0x2C }
  - { offsetInCU: 0x274B7, offset: 0x2F8CC, size: 0x8, addend: 0x0, symName: __ZN5Eigen8internal9evaluatorINS_13CwiseBinaryOpINS0_20scalar_difference_opIddEEKNS_6MatrixIdLi3ELi1ELi0ELi3ELi1EEES7_EEED2Ev, symObjAddr: 0x8164, symBinAddr: 0x100022778, symSize: 0x2C }
  - { offsetInCU: 0x274E4, offset: 0x2F8F9, size: 0x8, addend: 0x0, symName: __ZN5Eigen8internal16binary_evaluatorINS_13CwiseBinaryOpINS0_20scalar_difference_opIddEEKNS_6MatrixIdLi3ELi1ELi0ELi3ELi1EEES7_EENS0_10IndexBasedES9_ddED2Ev, symObjAddr: 0x8190, symBinAddr: 0x1000227A4, symSize: 0x34 }
  - { offsetInCU: 0x27510, offset: 0x2F925, size: 0x8, addend: 0x0, symName: __ZN5Eigen8internal16binary_evaluatorINS_13CwiseBinaryOpINS0_20scalar_difference_opIddEEKNS_6MatrixIdLi3ELi1ELi0ELi3ELi1EEES7_EENS0_10IndexBasedES9_ddE4DataD1Ev, symObjAddr: 0x81C4, symBinAddr: 0x1000227D8, symSize: 0x2C }
  - { offsetInCU: 0x2753D, offset: 0x2F952, size: 0x8, addend: 0x0, symName: __ZN5Eigen8internal16binary_evaluatorINS_13CwiseBinaryOpINS0_20scalar_difference_opIddEEKNS_6MatrixIdLi3ELi1ELi0ELi3ELi1EEES7_EENS0_10IndexBasedES9_ddE4DataD2Ev, symObjAddr: 0x81F0, symBinAddr: 0x100022804, symSize: 0x3C }
  - { offsetInCU: 0x27569, offset: 0x2F97E, size: 0x8, addend: 0x0, symName: __ZN5Eigen6MatrixIdLi3ELi1ELi0ELi3ELi1EEC2ERKdS3_S3_, symObjAddr: 0x822C, symBinAddr: 0x100022840, symSize: 0x9C }
  - { offsetInCU: 0x275C0, offset: 0x2F9D5, size: 0x8, addend: 0x0, symName: __ZN5Eigen15PlainObjectBaseINS_6MatrixIdLi3ELi1ELi0ELi3ELi1EEEEC2Ev, symObjAddr: 0x82C8, symBinAddr: 0x1000228DC, symSize: 0x34 }
  - { offsetInCU: 0x275EA, offset: 0x2F9FF, size: 0x8, addend: 0x0, symName: __ZN5Eigen12DenseStorageIdLi3ELi3ELi1ELi0EE4dataEv, symObjAddr: 0x82FC, symBinAddr: 0x100022910, symSize: 0x14 }
  - { offsetInCU: 0x27611, offset: 0x2FA26, size: 0x8, addend: 0x0, symName: __ZNK5Eigen10MatrixBaseINS_6MatrixIdLi3ELi1ELi0ELi3ELi1EEEE11squaredNormEv, symObjAddr: 0x8310, symBinAddr: 0x100022924, symSize: 0x40 }
  - { offsetInCU: 0x27638, offset: 0x2FA4D, size: 0x8, addend: 0x0, symName: __ZNK5Eigen10MatrixBaseINS_6MatrixIdLi3ELi1ELi0ELi3ELi1EEEEdvIdEEKNS_13CwiseBinaryOpINS_8internal18scalar_quotient_opIdNS6_18promote_scalar_argIdT_Xsr5Eigen8internal14has_ReturnTypeINS_20ScalarBinaryOpTraitsIdS9_NS7_IdS9_EEEEEE5valueEE4typeEEEKS2_KNS6_19plain_constant_typeIS2_SE_E4typeEEERKS9_, symObjAddr: 0x8350, symBinAddr: 0x100022964, symSize: 0xA8 }
  - { offsetInCU: 0x2767A, offset: 0x2FA8F, size: 0x8, addend: 0x0, symName: __ZN5Eigen6MatrixIdLi3ELi1ELi0ELi3ELi1EEC1INS_13CwiseBinaryOpINS_8internal18scalar_quotient_opIddEEKS1_KNS_14CwiseNullaryOpINS4_18scalar_constant_opIdEES7_EEEEEERKNS_9EigenBaseIT_EE, symObjAddr: 0x83F8, symBinAddr: 0x100022A0C, symSize: 0x34 }
  - { offsetInCU: 0x276BC, offset: 0x2FAD1, size: 0x8, addend: 0x0, symName: __ZN5Eigen6MatrixIdLi3ELi1ELi0ELi3ELi1EEC1ERKS1_, symObjAddr: 0x842C, symBinAddr: 0x100022A40, symSize: 0x34 }
  - { offsetInCU: 0x276F5, offset: 0x2FB0A, size: 0x8, addend: 0x0, symName: __ZNK5Eigen10MatrixBaseINS_6MatrixIdLi3ELi1ELi0ELi3ELi1EEEE9cwiseAbs2Ev, symObjAddr: 0x8460, symBinAddr: 0x100022A74, symSize: 0x4C }
  - { offsetInCU: 0x2771C, offset: 0x2FB31, size: 0x8, addend: 0x0, symName: __ZNK5Eigen9DenseBaseINS_12CwiseUnaryOpINS_8internal14scalar_abs2_opIdEEKNS_6MatrixIdLi3ELi1ELi0ELi3ELi1EEEEEE3sumEv, symObjAddr: 0x84AC, symBinAddr: 0x100022AC0, symSize: 0x40 }
  - { offsetInCU: 0x27744, offset: 0x2FB59, size: 0x8, addend: 0x0, symName: __ZN5Eigen12CwiseUnaryOpINS_8internal14scalar_abs2_opIdEEKNS_6MatrixIdLi3ELi1ELi0ELi3ELi1EEEEC1ERS6_RKS3_, symObjAddr: 0x84EC, symBinAddr: 0x100022B00, symSize: 0x3C }
  - { offsetInCU: 0x2778A, offset: 0x2FB9F, size: 0x8, addend: 0x0, symName: __ZN5Eigen12CwiseUnaryOpINS_8internal14scalar_abs2_opIdEEKNS_6MatrixIdLi3ELi1ELi0ELi3ELi1EEEEC2ERS6_RKS3_, symObjAddr: 0x8528, symBinAddr: 0x100022B3C, symSize: 0x4C }
  - { offsetInCU: 0x277D6, offset: 0x2FBEB, size: 0x8, addend: 0x0, symName: __ZN5Eigen16CwiseUnaryOpImplINS_8internal14scalar_abs2_opIdEEKNS_6MatrixIdLi3ELi1ELi0ELi3ELi1EEENS_5DenseEEC2Ev, symObjAddr: 0x8574, symBinAddr: 0x100022B88, symSize: 0x2C }
  - { offsetInCU: 0x27801, offset: 0x2FC16, size: 0x8, addend: 0x0, symName: __ZN5Eigen10MatrixBaseINS_12CwiseUnaryOpINS_8internal14scalar_abs2_opIdEEKNS_6MatrixIdLi3ELi1ELi0ELi3ELi1EEEEEEC2Ev, symObjAddr: 0x85A0, symBinAddr: 0x100022BB4, symSize: 0x2C }
  - { offsetInCU: 0x2782C, offset: 0x2FC41, size: 0x8, addend: 0x0, symName: __ZN5Eigen9DenseBaseINS_12CwiseUnaryOpINS_8internal14scalar_abs2_opIdEEKNS_6MatrixIdLi3ELi1ELi0ELi3ELi1EEEEEEC2Ev, symObjAddr: 0x85CC, symBinAddr: 0x100022BE0, symSize: 0x14 }
  - { offsetInCU: 0x27855, offset: 0x2FC6A, size: 0x8, addend: 0x0, symName: __ZNK5Eigen9EigenBaseINS_12CwiseUnaryOpINS_8internal14scalar_abs2_opIdEEKNS_6MatrixIdLi3ELi1ELi0ELi3ELi1EEEEEE7derivedEv, symObjAddr: 0x85E0, symBinAddr: 0x100022BF4, symSize: 0x14 }
  - { offsetInCU: 0x2787C, offset: 0x2FC91, size: 0x8, addend: 0x0, symName: __ZNK5Eigen9DenseBaseINS_12CwiseUnaryOpINS_8internal14scalar_abs2_opIdEEKNS_6MatrixIdLi3ELi1ELi0ELi3ELi1EEEEEE5reduxINS2_13scalar_sum_opIddEEEEdRKT_, symObjAddr: 0x85F4, symBinAddr: 0x100022C08, symSize: 0x10C }
  - { offsetInCU: 0x278D7, offset: 0x2FCEC, size: 0x8, addend: 0x0, symName: __ZNK5Eigen9EigenBaseINS_12CwiseUnaryOpINS_8internal14scalar_abs2_opIdEEKNS_6MatrixIdLi3ELi1ELi0ELi3ELi1EEEEEE4rowsEv, symObjAddr: 0x8700, symBinAddr: 0x100022D14, symSize: 0x28 }
  - { offsetInCU: 0x278FD, offset: 0x2FD12, size: 0x8, addend: 0x0, symName: __ZNK5Eigen9EigenBaseINS_12CwiseUnaryOpINS_8internal14scalar_abs2_opIdEEKNS_6MatrixIdLi3ELi1ELi0ELi3ELi1EEEEEE4colsEv, symObjAddr: 0x8728, symBinAddr: 0x100022D3C, symSize: 0x28 }
  - { offsetInCU: 0x27923, offset: 0x2FD38, size: 0x8, addend: 0x0, symName: __ZN5Eigen8internal15redux_evaluatorINS_12CwiseUnaryOpINS0_14scalar_abs2_opIdEEKNS_6MatrixIdLi3ELi1ELi0ELi3ELi1EEEEEEC1ERKS8_, symObjAddr: 0x8750, symBinAddr: 0x100022D64, symSize: 0x34 }
  - { offsetInCU: 0x2795C, offset: 0x2FD71, size: 0x8, addend: 0x0, symName: __ZN5Eigen8internal10redux_implINS0_13scalar_sum_opIddEENS0_15redux_evaluatorINS_12CwiseUnaryOpINS0_14scalar_abs2_opIdEEKNS_6MatrixIdLi3ELi1ELi0ELi3ELi1EEEEEEELi3ELi2EE3runISB_EEdRKSC_RKS3_RKT_, symObjAddr: 0x8784, symBinAddr: 0x100022D98, symSize: 0x100 }
  - { offsetInCU: 0x279C4, offset: 0x2FDD9, size: 0x8, addend: 0x0, symName: __ZN5Eigen8internal15redux_evaluatorINS_12CwiseUnaryOpINS0_14scalar_abs2_opIdEEKNS_6MatrixIdLi3ELi1ELi0ELi3ELi1EEEEEED1Ev, symObjAddr: 0x8884, symBinAddr: 0x100022E98, symSize: 0x2C }
  - { offsetInCU: 0x279F0, offset: 0x2FE05, size: 0x8, addend: 0x0, symName: __ZNK5Eigen12CwiseUnaryOpINS_8internal14scalar_abs2_opIdEEKNS_6MatrixIdLi3ELi1ELi0ELi3ELi1EEEE4rowsEv, symObjAddr: 0x88B0, symBinAddr: 0x100022EC4, symSize: 0x28 }
  - { offsetInCU: 0x27A16, offset: 0x2FE2B, size: 0x8, addend: 0x0, symName: __ZNK5Eigen12CwiseUnaryOpINS_8internal14scalar_abs2_opIdEEKNS_6MatrixIdLi3ELi1ELi0ELi3ELi1EEEE4colsEv, symObjAddr: 0x88D8, symBinAddr: 0x100022EEC, symSize: 0x28 }
  - { offsetInCU: 0x27A3C, offset: 0x2FE51, size: 0x8, addend: 0x0, symName: __ZN5Eigen8internal15redux_evaluatorINS_12CwiseUnaryOpINS0_14scalar_abs2_opIdEEKNS_6MatrixIdLi3ELi1ELi0ELi3ELi1EEEEEEC2ERKS8_, symObjAddr: 0x8900, symBinAddr: 0x100022F14, symSize: 0x34 }
  - { offsetInCU: 0x27A75, offset: 0x2FE8A, size: 0x8, addend: 0x0, symName: __ZN5Eigen8internal9evaluatorINS_12CwiseUnaryOpINS0_14scalar_abs2_opIdEEKNS_6MatrixIdLi3ELi1ELi0ELi3ELi1EEEEEEC2ERKS8_, symObjAddr: 0x8934, symBinAddr: 0x100022F48, symSize: 0x34 }
  - { offsetInCU: 0x27AAD, offset: 0x2FEC2, size: 0x8, addend: 0x0, symName: __ZN5Eigen8internal15unary_evaluatorINS_12CwiseUnaryOpINS0_14scalar_abs2_opIdEEKNS_6MatrixIdLi3ELi1ELi0ELi3ELi1EEEEENS0_10IndexBasedEdEC2ERKS8_, symObjAddr: 0x8968, symBinAddr: 0x100022F7C, symSize: 0x64 }
  - { offsetInCU: 0x27AE7, offset: 0x2FEFC, size: 0x8, addend: 0x0, symName: __ZN5Eigen8internal14evaluator_baseINS_12CwiseUnaryOpINS0_14scalar_abs2_opIdEEKNS_6MatrixIdLi3ELi1ELi0ELi3ELi1EEEEEEC2Ev, symObjAddr: 0x89CC, symBinAddr: 0x100022FE0, symSize: 0x14 }
  - { offsetInCU: 0x27B10, offset: 0x2FF25, size: 0x8, addend: 0x0, symName: __ZN5Eigen8internal15unary_evaluatorINS_12CwiseUnaryOpINS0_14scalar_abs2_opIdEEKNS_6MatrixIdLi3ELi1ELi0ELi3ELi1EEEEENS0_10IndexBasedEdE4DataC1ERKS8_, symObjAddr: 0x89E0, symBinAddr: 0x100022FF4, symSize: 0x34 }
  - { offsetInCU: 0x27B4A, offset: 0x2FF5F, size: 0x8, addend: 0x0, symName: __ZN5Eigen8internal14evaluator_baseINS_12CwiseUnaryOpINS0_14scalar_abs2_opIdEEKNS_6MatrixIdLi3ELi1ELi0ELi3ELi1EEEEEED2Ev, symObjAddr: 0x8A14, symBinAddr: 0x100023028, symSize: 0x14 }
  - { offsetInCU: 0x27B73, offset: 0x2FF88, size: 0x8, addend: 0x0, symName: __ZN5Eigen8internal15unary_evaluatorINS_12CwiseUnaryOpINS0_14scalar_abs2_opIdEEKNS_6MatrixIdLi3ELi1ELi0ELi3ELi1EEEEENS0_10IndexBasedEdE4DataC2ERKS8_, symObjAddr: 0x8A28, symBinAddr: 0x10002303C, symSize: 0x58 }
  - { offsetInCU: 0x27BAC, offset: 0x2FFC1, size: 0x8, addend: 0x0, symName: __ZNK5Eigen12CwiseUnaryOpINS_8internal14scalar_abs2_opIdEEKNS_6MatrixIdLi3ELi1ELi0ELi3ELi1EEEE7functorEv, symObjAddr: 0x8A80, symBinAddr: 0x100023094, symSize: 0x18 }
  - { offsetInCU: 0x27BD2, offset: 0x2FFE7, size: 0x8, addend: 0x0, symName: __ZNK5Eigen12CwiseUnaryOpINS_8internal14scalar_abs2_opIdEEKNS_6MatrixIdLi3ELi1ELi0ELi3ELi1EEEE16nestedExpressionEv, symObjAddr: 0x8A98, symBinAddr: 0x1000230AC, symSize: 0x18 }
  - { offsetInCU: 0x27BF8, offset: 0x3000D, size: 0x8, addend: 0x0, symName: __ZN5Eigen8internal20redux_novec_unrollerINS0_13scalar_sum_opIddEENS0_15redux_evaluatorINS_12CwiseUnaryOpINS0_14scalar_abs2_opIdEEKNS_6MatrixIdLi3ELi1ELi0ELi3ELi1EEEEEEELi2ELi1EE3runERKSC_RKS3_, symObjAddr: 0x8AE0, symBinAddr: 0x1000230F4, symSize: 0x30 }
  - { offsetInCU: 0x27C24, offset: 0x30039, size: 0x8, addend: 0x0, symName: __ZNK5Eigen8internal15redux_evaluatorINS_12CwiseUnaryOpINS0_14scalar_abs2_opIdEEKNS_6MatrixIdLi3ELi1ELi0ELi3ELi1EEEEEE18packetByOuterInnerILi0E19__simd128_float64_tEET0_ll, symObjAddr: 0x8B10, symBinAddr: 0x100023124, symSize: 0x34 }
  - { offsetInCU: 0x27C7B, offset: 0x30090, size: 0x8, addend: 0x0, symName: __ZNK5Eigen8internal15unary_evaluatorINS_12CwiseUnaryOpINS0_14scalar_abs2_opIdEEKNS_6MatrixIdLi3ELi1ELi0ELi3ELi1EEEEENS0_10IndexBasedEdE6packetILi0E19__simd128_float64_tEET0_ll, symObjAddr: 0x8B44, symBinAddr: 0x100023158, symSize: 0x58 }
  - { offsetInCU: 0x27CD2, offset: 0x300E7, size: 0x8, addend: 0x0, symName: __ZNK5Eigen8internal15unary_evaluatorINS_12CwiseUnaryOpINS0_14scalar_abs2_opIdEEKNS_6MatrixIdLi3ELi1ELi0ELi3ELi1EEEEENS0_10IndexBasedEdE4Data4funcEv, symObjAddr: 0x8B9C, symBinAddr: 0x1000231B0, symSize: 0x14 }
  - { offsetInCU: 0x27CF8, offset: 0x3010D, size: 0x8, addend: 0x0, symName: __ZNK5Eigen8internal15redux_evaluatorINS_12CwiseUnaryOpINS0_14scalar_abs2_opIdEEKNS_6MatrixIdLi3ELi1ELi0ELi3ELi1EEEEEE17coeffByOuterInnerEll, symObjAddr: 0x8BB0, symBinAddr: 0x1000231C4, symSize: 0x34 }
  - { offsetInCU: 0x27D3C, offset: 0x30151, size: 0x8, addend: 0x0, symName: __ZNK5Eigen8internal15unary_evaluatorINS_12CwiseUnaryOpINS0_14scalar_abs2_opIdEEKNS_6MatrixIdLi3ELi1ELi0ELi3ELi1EEEEENS0_10IndexBasedEdE5coeffEll, symObjAddr: 0x8BE4, symBinAddr: 0x1000231F8, symSize: 0x54 }
  - { offsetInCU: 0x27D81, offset: 0x30196, size: 0x8, addend: 0x0, symName: __ZN5Eigen8internal15redux_evaluatorINS_12CwiseUnaryOpINS0_14scalar_abs2_opIdEEKNS_6MatrixIdLi3ELi1ELi0ELi3ELi1EEEEEED2Ev, symObjAddr: 0x8C38, symBinAddr: 0x10002324C, symSize: 0x2C }
  - { offsetInCU: 0x27DAE, offset: 0x301C3, size: 0x8, addend: 0x0, symName: __ZN5Eigen8internal9evaluatorINS_12CwiseUnaryOpINS0_14scalar_abs2_opIdEEKNS_6MatrixIdLi3ELi1ELi0ELi3ELi1EEEEEED2Ev, symObjAddr: 0x8C64, symBinAddr: 0x100023278, symSize: 0x2C }
  - { offsetInCU: 0x27DDA, offset: 0x301EF, size: 0x8, addend: 0x0, symName: __ZN5Eigen8internal15unary_evaluatorINS_12CwiseUnaryOpINS0_14scalar_abs2_opIdEEKNS_6MatrixIdLi3ELi1ELi0ELi3ELi1EEEEENS0_10IndexBasedEdED2Ev, symObjAddr: 0x8C90, symBinAddr: 0x1000232A4, symSize: 0x34 }
  - { offsetInCU: 0x27E06, offset: 0x3021B, size: 0x8, addend: 0x0, symName: __ZN5Eigen8internal15unary_evaluatorINS_12CwiseUnaryOpINS0_14scalar_abs2_opIdEEKNS_6MatrixIdLi3ELi1ELi0ELi3ELi1EEEEENS0_10IndexBasedEdE4DataD1Ev, symObjAddr: 0x8CC4, symBinAddr: 0x1000232D8, symSize: 0x2C }
  - { offsetInCU: 0x27E33, offset: 0x30248, size: 0x8, addend: 0x0, symName: __ZN5Eigen8internal15unary_evaluatorINS_12CwiseUnaryOpINS0_14scalar_abs2_opIdEEKNS_6MatrixIdLi3ELi1ELi0ELi3ELi1EEEEENS0_10IndexBasedEdE4DataD2Ev, symObjAddr: 0x8CF0, symBinAddr: 0x100023304, symSize: 0x30 }
  - { offsetInCU: 0x27E5F, offset: 0x30274, size: 0x8, addend: 0x0, symName: __ZN5Eigen13CwiseBinaryOpINS_8internal18scalar_quotient_opIddEEKNS_6MatrixIdLi3ELi1ELi0ELi3ELi1EEEKNS_14CwiseNullaryOpINS1_18scalar_constant_opIdEES6_EEEC1ERS6_RSB_RKS3_, symObjAddr: 0x8D20, symBinAddr: 0x100023334, symSize: 0x44 }
  - { offsetInCU: 0x27EB3, offset: 0x302C8, size: 0x8, addend: 0x0, symName: __ZN5Eigen13CwiseBinaryOpINS_8internal18scalar_quotient_opIddEEKNS_6MatrixIdLi3ELi1ELi0ELi3ELi1EEEKNS_14CwiseNullaryOpINS1_18scalar_constant_opIdEES6_EEEC2ERS6_RSB_RKS3_, symObjAddr: 0x8D64, symBinAddr: 0x100023378, symSize: 0xF8 }
  - { offsetInCU: 0x27F0D, offset: 0x30322, size: 0x8, addend: 0x0, symName: __ZN5Eigen17CwiseBinaryOpImplINS_8internal18scalar_quotient_opIddEEKNS_6MatrixIdLi3ELi1ELi0ELi3ELi1EEEKNS_14CwiseNullaryOpINS1_18scalar_constant_opIdEES6_EENS_5DenseEEC2Ev, symObjAddr: 0x8E5C, symBinAddr: 0x100023470, symSize: 0x2C }
  - { offsetInCU: 0x27F38, offset: 0x3034D, size: 0x8, addend: 0x0, symName: __ZN5Eigen10MatrixBaseINS_13CwiseBinaryOpINS_8internal18scalar_quotient_opIddEEKNS_6MatrixIdLi3ELi1ELi0ELi3ELi1EEEKNS_14CwiseNullaryOpINS2_18scalar_constant_opIdEES7_EEEEEC2Ev, symObjAddr: 0x8E88, symBinAddr: 0x10002349C, symSize: 0x2C }
  - { offsetInCU: 0x27F63, offset: 0x30378, size: 0x8, addend: 0x0, symName: __ZN5Eigen9DenseBaseINS_13CwiseBinaryOpINS_8internal18scalar_quotient_opIddEEKNS_6MatrixIdLi3ELi1ELi0ELi3ELi1EEEKNS_14CwiseNullaryOpINS2_18scalar_constant_opIdEES7_EEEEEC2Ev, symObjAddr: 0x8EB4, symBinAddr: 0x1000234C8, symSize: 0x14 }
  - { offsetInCU: 0x27F8C, offset: 0x303A1, size: 0x8, addend: 0x0, symName: __ZN5Eigen6MatrixIdLi3ELi1ELi0ELi3ELi1EEC2INS_13CwiseBinaryOpINS_8internal18scalar_quotient_opIddEEKS1_KNS_14CwiseNullaryOpINS4_18scalar_constant_opIdEES7_EEEEEERKNS_9EigenBaseIT_EE, symObjAddr: 0x8EC8, symBinAddr: 0x1000234DC, symSize: 0x40 }
  - { offsetInCU: 0x27FCE, offset: 0x303E3, size: 0x8, addend: 0x0, symName: __ZNK5Eigen9EigenBaseINS_13CwiseBinaryOpINS_8internal18scalar_quotient_opIddEEKNS_6MatrixIdLi3ELi1ELi0ELi3ELi1EEEKNS_14CwiseNullaryOpINS2_18scalar_constant_opIdEES7_EEEEE7derivedEv, symObjAddr: 0x8F08, symBinAddr: 0x10002351C, symSize: 0x14 }
  - { offsetInCU: 0x27FF4, offset: 0x30409, size: 0x8, addend: 0x0, symName: __ZN5Eigen15PlainObjectBaseINS_6MatrixIdLi3ELi1ELi0ELi3ELi1EEEEC2INS_13CwiseBinaryOpINS_8internal18scalar_quotient_opIddEEKS2_KNS_14CwiseNullaryOpINS6_18scalar_constant_opIdEES9_EEEEEERKNS_9DenseBaseIT_EE, symObjAddr: 0x8F1C, symBinAddr: 0x100023530, symSize: 0x54 }
  - { offsetInCU: 0x28036, offset: 0x3044B, size: 0x8, addend: 0x0, symName: __ZN5Eigen15PlainObjectBaseINS_6MatrixIdLi3ELi1ELi0ELi3ELi1EEEE10resizeLikeINS_13CwiseBinaryOpINS_8internal18scalar_quotient_opIddEEKS2_KNS_14CwiseNullaryOpINS6_18scalar_constant_opIdEES9_EEEEEEvRKNS_9EigenBaseIT_EE, symObjAddr: 0x8F70, symBinAddr: 0x100023584, symSize: 0xF0 }
  - { offsetInCU: 0x28092, offset: 0x304A7, size: 0x8, addend: 0x0, symName: __ZN5Eigen15PlainObjectBaseINS_6MatrixIdLi3ELi1ELi0ELi3ELi1EEEE12_set_noaliasINS_13CwiseBinaryOpINS_8internal18scalar_quotient_opIddEEKS2_KNS_14CwiseNullaryOpINS6_18scalar_constant_opIdEES9_EEEEEERS2_RKNS_9DenseBaseIT_EE, symObjAddr: 0x9060, symBinAddr: 0x100023674, symSize: 0x60 }
  - { offsetInCU: 0x280D0, offset: 0x304E5, size: 0x8, addend: 0x0, symName: __ZNK5Eigen13CwiseBinaryOpINS_8internal18scalar_quotient_opIddEEKNS_6MatrixIdLi3ELi1ELi0ELi3ELi1EEEKNS_14CwiseNullaryOpINS1_18scalar_constant_opIdEES6_EEE4rowsEv, symObjAddr: 0x90C0, symBinAddr: 0x1000236D4, symSize: 0x28 }
  - { offsetInCU: 0x280F6, offset: 0x3050B, size: 0x8, addend: 0x0, symName: __ZNK5Eigen13CwiseBinaryOpINS_8internal18scalar_quotient_opIddEEKNS_6MatrixIdLi3ELi1ELi0ELi3ELi1EEEKNS_14CwiseNullaryOpINS1_18scalar_constant_opIdEES6_EEE4colsEv, symObjAddr: 0x90E8, symBinAddr: 0x1000236FC, symSize: 0x28 }
  - { offsetInCU: 0x2811C, offset: 0x30531, size: 0x8, addend: 0x0, symName: __ZN5Eigen8internal10AssignmentINS_6MatrixIdLi3ELi1ELi0ELi3ELi1EEENS_13CwiseBinaryOpINS0_18scalar_quotient_opIddEEKS3_KNS_14CwiseNullaryOpINS0_18scalar_constant_opIdEES7_EEEENS0_9assign_opIddEENS0_11Dense2DenseEvE3runERS3_RKSD_RKSF_, symObjAddr: 0x914C, symBinAddr: 0x100023760, symSize: 0x40 }
  - { offsetInCU: 0x2815D, offset: 0x30572, size: 0x8, addend: 0x0, symName: __ZN5Eigen8internal9evaluatorINS_13CwiseBinaryOpINS0_18scalar_quotient_opIddEEKNS_6MatrixIdLi3ELi1ELi0ELi3ELi1EEEKNS_14CwiseNullaryOpINS0_18scalar_constant_opIdEES7_EEEEEC1ERKSD_, symObjAddr: 0x9278, symBinAddr: 0x10002388C, symSize: 0x34 }
  - { offsetInCU: 0x28196, offset: 0x305AB, size: 0x8, addend: 0x0, symName: __ZN5Eigen8internal31generic_dense_assignment_kernelINS0_9evaluatorINS_6MatrixIdLi3ELi1ELi0ELi3ELi1EEEEENS2_INS_13CwiseBinaryOpINS0_18scalar_quotient_opIddEEKS4_KNS_14CwiseNullaryOpINS0_18scalar_constant_opIdEES9_EEEEEENS0_9assign_opIddEELi0EEC1ERS5_RKSG_RKSI_RS4_, symObjAddr: 0x93A4, symBinAddr: 0x1000239B8, symSize: 0x4C }
  - { offsetInCU: 0x281FC, offset: 0x30611, size: 0x8, addend: 0x0, symName: __ZN5Eigen8internal21dense_assignment_loopINS0_31generic_dense_assignment_kernelINS0_9evaluatorINS_6MatrixIdLi3ELi1ELi0ELi3ELi1EEEEENS3_INS_13CwiseBinaryOpINS0_18scalar_quotient_opIddEEKS5_KNS_14CwiseNullaryOpINS0_18scalar_constant_opIdEESA_EEEEEENS0_9assign_opIddEELi0EEELi3ELi2EE3runERSK_, symObjAddr: 0x93F0, symBinAddr: 0x100023A04, symSize: 0x2C }
  - { offsetInCU: 0x28220, offset: 0x30635, size: 0x8, addend: 0x0, symName: __ZN5Eigen8internal9evaluatorINS_13CwiseBinaryOpINS0_18scalar_quotient_opIddEEKNS_6MatrixIdLi3ELi1ELi0ELi3ELi1EEEKNS_14CwiseNullaryOpINS0_18scalar_constant_opIdEES7_EEEEED1Ev, symObjAddr: 0x941C, symBinAddr: 0x100023A30, symSize: 0x2C }
  - { offsetInCU: 0x2824C, offset: 0x30661, size: 0x8, addend: 0x0, symName: __ZN5Eigen8internal9evaluatorINS_13CwiseBinaryOpINS0_18scalar_quotient_opIddEEKNS_6MatrixIdLi3ELi1ELi0ELi3ELi1EEEKNS_14CwiseNullaryOpINS0_18scalar_constant_opIdEES7_EEEEEC2ERKSD_, symObjAddr: 0x9448, symBinAddr: 0x100023A5C, symSize: 0x34 }
  - { offsetInCU: 0x28285, offset: 0x3069A, size: 0x8, addend: 0x0, symName: __ZN5Eigen8internal16binary_evaluatorINS_13CwiseBinaryOpINS0_18scalar_quotient_opIddEEKNS_6MatrixIdLi3ELi1ELi0ELi3ELi1EEEKNS_14CwiseNullaryOpINS0_18scalar_constant_opIdEES7_EEEENS0_10IndexBasedESE_ddEC2ERKSD_, symObjAddr: 0x947C, symBinAddr: 0x100023A90, symSize: 0x64 }
  - { offsetInCU: 0x282BF, offset: 0x306D4, size: 0x8, addend: 0x0, symName: __ZN5Eigen8internal14evaluator_baseINS_13CwiseBinaryOpINS0_18scalar_quotient_opIddEEKNS_6MatrixIdLi3ELi1ELi0ELi3ELi1EEEKNS_14CwiseNullaryOpINS0_18scalar_constant_opIdEES7_EEEEEC2Ev, symObjAddr: 0x94E0, symBinAddr: 0x100023AF4, symSize: 0x14 }
  - { offsetInCU: 0x282E8, offset: 0x306FD, size: 0x8, addend: 0x0, symName: __ZN5Eigen8internal16binary_evaluatorINS_13CwiseBinaryOpINS0_18scalar_quotient_opIddEEKNS_6MatrixIdLi3ELi1ELi0ELi3ELi1EEEKNS_14CwiseNullaryOpINS0_18scalar_constant_opIdEES7_EEEENS0_10IndexBasedESE_ddE4DataC1ERKSD_, symObjAddr: 0x94F4, symBinAddr: 0x100023B08, symSize: 0x34 }
  - { offsetInCU: 0x28322, offset: 0x30737, size: 0x8, addend: 0x0, symName: __ZN5Eigen8internal14evaluator_baseINS_13CwiseBinaryOpINS0_18scalar_quotient_opIddEEKNS_6MatrixIdLi3ELi1ELi0ELi3ELi1EEEKNS_14CwiseNullaryOpINS0_18scalar_constant_opIdEES7_EEEEED2Ev, symObjAddr: 0x9528, symBinAddr: 0x100023B3C, symSize: 0x14 }
  - { offsetInCU: 0x2834B, offset: 0x30760, size: 0x8, addend: 0x0, symName: __ZN5Eigen8internal16binary_evaluatorINS_13CwiseBinaryOpINS0_18scalar_quotient_opIddEEKNS_6MatrixIdLi3ELi1ELi0ELi3ELi1EEEKNS_14CwiseNullaryOpINS0_18scalar_constant_opIdEES7_EEEENS0_10IndexBasedESE_ddE4DataC2ERKSD_, symObjAddr: 0x953C, symBinAddr: 0x100023B50, symSize: 0xA8 }
  - { offsetInCU: 0x28384, offset: 0x30799, size: 0x8, addend: 0x0, symName: __ZNK5Eigen13CwiseBinaryOpINS_8internal18scalar_quotient_opIddEEKNS_6MatrixIdLi3ELi1ELi0ELi3ELi1EEEKNS_14CwiseNullaryOpINS1_18scalar_constant_opIdEES6_EEE7functorEv, symObjAddr: 0x95E4, symBinAddr: 0x100023BF8, symSize: 0x18 }
  - { offsetInCU: 0x283AA, offset: 0x307BF, size: 0x8, addend: 0x0, symName: __ZNK5Eigen13CwiseBinaryOpINS_8internal18scalar_quotient_opIddEEKNS_6MatrixIdLi3ELi1ELi0ELi3ELi1EEEKNS_14CwiseNullaryOpINS1_18scalar_constant_opIdEES6_EEE3lhsEv, symObjAddr: 0x95FC, symBinAddr: 0x100023C10, symSize: 0x18 }
  - { offsetInCU: 0x283D0, offset: 0x307E5, size: 0x8, addend: 0x0, symName: __ZNK5Eigen13CwiseBinaryOpINS_8internal18scalar_quotient_opIddEEKNS_6MatrixIdLi3ELi1ELi0ELi3ELi1EEEKNS_14CwiseNullaryOpINS1_18scalar_constant_opIdEES6_EEE3rhsEv, symObjAddr: 0x9614, symBinAddr: 0x100023C28, symSize: 0x18 }
  - { offsetInCU: 0x283F7, offset: 0x3080C, size: 0x8, addend: 0x0, symName: __ZN5Eigen8internal31generic_dense_assignment_kernelINS0_9evaluatorINS_6MatrixIdLi3ELi1ELi0ELi3ELi1EEEEENS2_INS_13CwiseBinaryOpINS0_18scalar_quotient_opIddEEKS4_KNS_14CwiseNullaryOpINS0_18scalar_constant_opIdEES9_EEEEEENS0_9assign_opIddEELi0EEC2ERS5_RKSG_RKSI_RS4_, symObjAddr: 0x962C, symBinAddr: 0x100023C40, symSize: 0x44 }
  - { offsetInCU: 0x2845C, offset: 0x30871, size: 0x8, addend: 0x0, symName: __ZN5Eigen8internal47copy_using_evaluator_innervec_CompleteUnrollingINS0_31generic_dense_assignment_kernelINS0_9evaluatorINS_6MatrixIdLi3ELi1ELi0ELi3ELi1EEEEENS3_INS_13CwiseBinaryOpINS0_18scalar_quotient_opIddEEKS5_KNS_14CwiseNullaryOpINS0_18scalar_constant_opIdEESA_EEEEEENS0_9assign_opIddEELi0EEELi0ELi2EE3runERSK_, symObjAddr: 0x9670, symBinAddr: 0x100023C84, symSize: 0x34 }
  - { offsetInCU: 0x2847F, offset: 0x30894, size: 0x8, addend: 0x0, symName: __ZN5Eigen8internal55copy_using_evaluator_DefaultTraversal_CompleteUnrollingINS0_31generic_dense_assignment_kernelINS0_9evaluatorINS_6MatrixIdLi3ELi1ELi0ELi3ELi1EEEEENS3_INS_13CwiseBinaryOpINS0_18scalar_quotient_opIddEEKS5_KNS_14CwiseNullaryOpINS0_18scalar_constant_opIdEESA_EEEEEENS0_9assign_opIddEELi0EEELi2ELi3EE3runERSK_, symObjAddr: 0x96A4, symBinAddr: 0x100023CB8, symSize: 0x34 }
  - { offsetInCU: 0x284A1, offset: 0x308B6, size: 0x8, addend: 0x0, symName: __ZN5Eigen8internal31generic_dense_assignment_kernelINS0_9evaluatorINS_6MatrixIdLi3ELi1ELi0ELi3ELi1EEEEENS2_INS_13CwiseBinaryOpINS0_18scalar_quotient_opIddEEKS4_KNS_14CwiseNullaryOpINS0_18scalar_constant_opIdEES9_EEEEEENS0_9assign_opIddEELi0EE24assignPacketByOuterInnerILi0ELi0E19__simd128_float64_tEEvll, symObjAddr: 0x96D8, symBinAddr: 0x100023CEC, symSize: 0x60 }
  - { offsetInCU: 0x28521, offset: 0x30936, size: 0x8, addend: 0x0, symName: __ZN5Eigen8internal47copy_using_evaluator_innervec_CompleteUnrollingINS0_31generic_dense_assignment_kernelINS0_9evaluatorINS_6MatrixIdLi3ELi1ELi0ELi3ELi1EEEEENS3_INS_13CwiseBinaryOpINS0_18scalar_quotient_opIddEEKS5_KNS_14CwiseNullaryOpINS0_18scalar_constant_opIdEESA_EEEEEENS0_9assign_opIddEELi0EEELi2ELi2EE3runERSK_, symObjAddr: 0x9738, symBinAddr: 0x100023D4C, symSize: 0x10 }
  - { offsetInCU: 0x28541, offset: 0x30956, size: 0x8, addend: 0x0, symName: __ZN5Eigen8internal31generic_dense_assignment_kernelINS0_9evaluatorINS_6MatrixIdLi3ELi1ELi0ELi3ELi1EEEEENS2_INS_13CwiseBinaryOpINS0_18scalar_quotient_opIddEEKS4_KNS_14CwiseNullaryOpINS0_18scalar_constant_opIdEES9_EEEEEENS0_9assign_opIddEELi0EE20rowIndexByOuterInnerEll, symObjAddr: 0x9748, symBinAddr: 0x100023D5C, symSize: 0x18 }
  - { offsetInCU: 0x28574, offset: 0x30989, size: 0x8, addend: 0x0, symName: __ZN5Eigen8internal31generic_dense_assignment_kernelINS0_9evaluatorINS_6MatrixIdLi3ELi1ELi0ELi3ELi1EEEEENS2_INS_13CwiseBinaryOpINS0_18scalar_quotient_opIddEEKS4_KNS_14CwiseNullaryOpINS0_18scalar_constant_opIdEES9_EEEEEENS0_9assign_opIddEELi0EE20colIndexByOuterInnerEll, symObjAddr: 0x9760, symBinAddr: 0x100023D74, symSize: 0x18 }
  - { offsetInCU: 0x285A6, offset: 0x309BB, size: 0x8, addend: 0x0, symName: __ZN5Eigen8internal31generic_dense_assignment_kernelINS0_9evaluatorINS_6MatrixIdLi3ELi1ELi0ELi3ELi1EEEEENS2_INS_13CwiseBinaryOpINS0_18scalar_quotient_opIddEEKS4_KNS_14CwiseNullaryOpINS0_18scalar_constant_opIdEES9_EEEEEENS0_9assign_opIddEELi0EE12assignPacketILi0ELi0E19__simd128_float64_tEEvll, symObjAddr: 0x9778, symBinAddr: 0x100023D8C, symSize: 0x70 }
  - { offsetInCU: 0x28607, offset: 0x30A1C, size: 0x8, addend: 0x0, symName: __ZNK5Eigen8internal16binary_evaluatorINS_13CwiseBinaryOpINS0_18scalar_quotient_opIddEEKNS_6MatrixIdLi3ELi1ELi0ELi3ELi1EEEKNS_14CwiseNullaryOpINS0_18scalar_constant_opIdEES7_EEEENS0_10IndexBasedESE_ddE6packetILi0E19__simd128_float64_tEET0_ll, symObjAddr: 0x97E8, symBinAddr: 0x100023DFC, symSize: 0x7C }
  - { offsetInCU: 0x2865E, offset: 0x30A73, size: 0x8, addend: 0x0, symName: __ZNK5Eigen8internal16binary_evaluatorINS_13CwiseBinaryOpINS0_18scalar_quotient_opIddEEKNS_6MatrixIdLi3ELi1ELi0ELi3ELi1EEEKNS_14CwiseNullaryOpINS0_18scalar_constant_opIdEES7_EEEENS0_10IndexBasedESE_ddE4Data4funcEv, symObjAddr: 0x9864, symBinAddr: 0x100023E78, symSize: 0x14 }
  - { offsetInCU: 0x28684, offset: 0x30A99, size: 0x8, addend: 0x0, symName: __ZN5Eigen8internal31generic_dense_assignment_kernelINS0_9evaluatorINS_6MatrixIdLi3ELi1ELi0ELi3ELi1EEEEENS2_INS_13CwiseBinaryOpINS0_18scalar_quotient_opIddEEKS4_KNS_14CwiseNullaryOpINS0_18scalar_constant_opIdEES9_EEEEEENS0_9assign_opIddEELi0EE23assignCoeffByOuterInnerEll, symObjAddr: 0x9878, symBinAddr: 0x100023E8C, symSize: 0x60 }
  - { offsetInCU: 0x286E7, offset: 0x30AFC, size: 0x8, addend: 0x0, symName: __ZN5Eigen8internal55copy_using_evaluator_DefaultTraversal_CompleteUnrollingINS0_31generic_dense_assignment_kernelINS0_9evaluatorINS_6MatrixIdLi3ELi1ELi0ELi3ELi1EEEEENS3_INS_13CwiseBinaryOpINS0_18scalar_quotient_opIddEEKS5_KNS_14CwiseNullaryOpINS0_18scalar_constant_opIdEESA_EEEEEENS0_9assign_opIddEELi0EEELi3ELi3EE3runERSK_, symObjAddr: 0x98D8, symBinAddr: 0x100023EEC, symSize: 0x10 }
  - { offsetInCU: 0x28705, offset: 0x30B1A, size: 0x8, addend: 0x0, symName: __ZN5Eigen8internal31generic_dense_assignment_kernelINS0_9evaluatorINS_6MatrixIdLi3ELi1ELi0ELi3ELi1EEEEENS2_INS_13CwiseBinaryOpINS0_18scalar_quotient_opIddEEKS4_KNS_14CwiseNullaryOpINS0_18scalar_constant_opIdEES9_EEEEEENS0_9assign_opIddEELi0EE11assignCoeffEll, symObjAddr: 0x98E8, symBinAddr: 0x100023EFC, symSize: 0x70 }
  - { offsetInCU: 0x28749, offset: 0x30B5E, size: 0x8, addend: 0x0, symName: __ZNK5Eigen8internal16binary_evaluatorINS_13CwiseBinaryOpINS0_18scalar_quotient_opIddEEKNS_6MatrixIdLi3ELi1ELi0ELi3ELi1EEEKNS_14CwiseNullaryOpINS0_18scalar_constant_opIdEES7_EEEENS0_10IndexBasedESE_ddE5coeffEll, symObjAddr: 0x9958, symBinAddr: 0x100023F6C, symSize: 0x74 }
  - { offsetInCU: 0x2878E, offset: 0x30BA3, size: 0x8, addend: 0x0, symName: __ZN5Eigen8internal9evaluatorINS_13CwiseBinaryOpINS0_18scalar_quotient_opIddEEKNS_6MatrixIdLi3ELi1ELi0ELi3ELi1EEEKNS_14CwiseNullaryOpINS0_18scalar_constant_opIdEES7_EEEEED2Ev, symObjAddr: 0x99CC, symBinAddr: 0x100023FE0, symSize: 0x2C }
  - { offsetInCU: 0x287BB, offset: 0x30BD0, size: 0x8, addend: 0x0, symName: __ZN5Eigen8internal16binary_evaluatorINS_13CwiseBinaryOpINS0_18scalar_quotient_opIddEEKNS_6MatrixIdLi3ELi1ELi0ELi3ELi1EEEKNS_14CwiseNullaryOpINS0_18scalar_constant_opIdEES7_EEEENS0_10IndexBasedESE_ddED2Ev, symObjAddr: 0x99F8, symBinAddr: 0x10002400C, symSize: 0x34 }
  - { offsetInCU: 0x287E7, offset: 0x30BFC, size: 0x8, addend: 0x0, symName: __ZN5Eigen8internal16binary_evaluatorINS_13CwiseBinaryOpINS0_18scalar_quotient_opIddEEKNS_6MatrixIdLi3ELi1ELi0ELi3ELi1EEEKNS_14CwiseNullaryOpINS0_18scalar_constant_opIdEES7_EEEENS0_10IndexBasedESE_ddE4DataD1Ev, symObjAddr: 0x9A2C, symBinAddr: 0x100024040, symSize: 0x2C }
  - { offsetInCU: 0x28814, offset: 0x30C29, size: 0x8, addend: 0x0, symName: __ZN5Eigen8internal16binary_evaluatorINS_13CwiseBinaryOpINS0_18scalar_quotient_opIddEEKNS_6MatrixIdLi3ELi1ELi0ELi3ELi1EEEKNS_14CwiseNullaryOpINS0_18scalar_constant_opIdEES7_EEEENS0_10IndexBasedESE_ddE4DataD2Ev, symObjAddr: 0x9A58, symBinAddr: 0x10002406C, symSize: 0x3C }
  - { offsetInCU: 0x28840, offset: 0x30C55, size: 0x8, addend: 0x0, symName: __ZN5Eigen6MatrixIdLi3ELi1ELi0ELi3ELi1EEC2ERKS1_, symObjAddr: 0x9A94, symBinAddr: 0x1000240A8, symSize: 0x34 }
  - { offsetInCU: 0x28879, offset: 0x30C8E, size: 0x8, addend: 0x0, symName: __ZN5Eigen15PlainObjectBaseINS_6MatrixIdLi3ELi1ELi0ELi3ELi1EEEEC2ERKS3_, symObjAddr: 0x9AC8, symBinAddr: 0x1000240DC, symSize: 0x44 }
  - { offsetInCU: 0x288B3, offset: 0x30CC8, size: 0x8, addend: 0x0, symName: __ZN5Eigen9DenseBaseINS_6MatrixIdLi3ELi1ELi0ELi3ELi1EEEE8ConstantEllRKd, symObjAddr: 0x9B44, symBinAddr: 0x100024158, symSize: 0x60 }
  - { offsetInCU: 0x288F6, offset: 0x30D0B, size: 0x8, addend: 0x0, symName: __ZN5Eigen8internal13mul_assign_opIddEC1Ev, symObjAddr: 0x9BA4, symBinAddr: 0x1000241B8, symSize: 0x2C }
  - { offsetInCU: 0x28920, offset: 0x30D35, size: 0x8, addend: 0x0, symName: __ZN5Eigen8internal10AssignmentINS_6MatrixIdLi3ELi1ELi0ELi3ELi1EEENS_14CwiseNullaryOpINS0_18scalar_constant_opIdEES3_EENS0_13mul_assign_opIddEENS0_11Dense2DenseEvE3runERS3_RKS7_RKS9_, symObjAddr: 0x9C0C, symBinAddr: 0x100024220, symSize: 0x40 }
  - { offsetInCU: 0x28961, offset: 0x30D76, size: 0x8, addend: 0x0, symName: __ZN5Eigen8internal9evaluatorINS_14CwiseNullaryOpINS0_18scalar_constant_opIdEENS_6MatrixIdLi3ELi1ELi0ELi3ELi1EEEEEEC1ERKS7_, symObjAddr: 0x9D38, symBinAddr: 0x10002434C, symSize: 0x34 }
  - { offsetInCU: 0x2899A, offset: 0x30DAF, size: 0x8, addend: 0x0, symName: __ZN5Eigen8internal31generic_dense_assignment_kernelINS0_9evaluatorINS_6MatrixIdLi3ELi1ELi0ELi3ELi1EEEEENS2_INS_14CwiseNullaryOpINS0_18scalar_constant_opIdEES4_EEEENS0_13mul_assign_opIddEELi0EEC1ERS5_RKSA_RKSC_RS4_, symObjAddr: 0x9E20, symBinAddr: 0x100024434, symSize: 0x4C }
  - { offsetInCU: 0x28A00, offset: 0x30E15, size: 0x8, addend: 0x0, symName: __ZN5Eigen8internal21dense_assignment_loopINS0_31generic_dense_assignment_kernelINS0_9evaluatorINS_6MatrixIdLi3ELi1ELi0ELi3ELi1EEEEENS3_INS_14CwiseNullaryOpINS0_18scalar_constant_opIdEES5_EEEENS0_13mul_assign_opIddEELi0EEELi3ELi2EE3runERSE_, symObjAddr: 0x9E6C, symBinAddr: 0x100024480, symSize: 0x2C }
  - { offsetInCU: 0x28A24, offset: 0x30E39, size: 0x8, addend: 0x0, symName: __ZN5Eigen8internal9evaluatorINS_14CwiseNullaryOpINS0_18scalar_constant_opIdEENS_6MatrixIdLi3ELi1ELi0ELi3ELi1EEEEEED1Ev, symObjAddr: 0x9E98, symBinAddr: 0x1000244AC, symSize: 0x2C }
  - { offsetInCU: 0x28A4F, offset: 0x30E64, size: 0x8, addend: 0x0, symName: __ZN5Eigen8internal9evaluatorINS_14CwiseNullaryOpINS0_18scalar_constant_opIdEENS_6MatrixIdLi3ELi1ELi0ELi3ELi1EEEEEEC2ERKS7_, symObjAddr: 0x9EC4, symBinAddr: 0x1000244D8, symSize: 0x74 }
  - { offsetInCU: 0x28A89, offset: 0x30E9E, size: 0x8, addend: 0x0, symName: __ZN5Eigen8internal14evaluator_baseINS_14CwiseNullaryOpINS0_18scalar_constant_opIdEENS_6MatrixIdLi3ELi1ELi0ELi3ELi1EEEEEEC2Ev, symObjAddr: 0x9F38, symBinAddr: 0x10002454C, symSize: 0x14 }
  - { offsetInCU: 0x28AB2, offset: 0x30EC7, size: 0x8, addend: 0x0, symName: __ZNK5Eigen14CwiseNullaryOpINS_8internal18scalar_constant_opIdEENS_6MatrixIdLi3ELi1ELi0ELi3ELi1EEEE7functorEv, symObjAddr: 0x9F4C, symBinAddr: 0x100024560, symSize: 0x18 }
  - { offsetInCU: 0x28AD9, offset: 0x30EEE, size: 0x8, addend: 0x0, symName: __ZN5Eigen8internal14evaluator_baseINS_14CwiseNullaryOpINS0_18scalar_constant_opIdEENS_6MatrixIdLi3ELi1ELi0ELi3ELi1EEEEEED2Ev, symObjAddr: 0x9F64, symBinAddr: 0x100024578, symSize: 0x14 }
  - { offsetInCU: 0x28B02, offset: 0x30F17, size: 0x8, addend: 0x0, symName: __ZNK5Eigen14CwiseNullaryOpINS_8internal18scalar_constant_opIdEENS_6MatrixIdLi3ELi1ELi0ELi3ELi1EEEE4rowsEv, symObjAddr: 0x9F78, symBinAddr: 0x10002458C, symSize: 0x20 }
  - { offsetInCU: 0x28B28, offset: 0x30F3D, size: 0x8, addend: 0x0, symName: __ZNK5Eigen14CwiseNullaryOpINS_8internal18scalar_constant_opIdEENS_6MatrixIdLi3ELi1ELi0ELi3ELi1EEEE4colsEv, symObjAddr: 0x9F98, symBinAddr: 0x1000245AC, symSize: 0x20 }
  - { offsetInCU: 0x28B4F, offset: 0x30F64, size: 0x8, addend: 0x0, symName: __ZN5Eigen8internal31generic_dense_assignment_kernelINS0_9evaluatorINS_6MatrixIdLi3ELi1ELi0ELi3ELi1EEEEENS2_INS_14CwiseNullaryOpINS0_18scalar_constant_opIdEES4_EEEENS0_13mul_assign_opIddEELi0EEC2ERS5_RKSA_RKSC_RS4_, symObjAddr: 0x9FB8, symBinAddr: 0x1000245CC, symSize: 0x44 }
  - { offsetInCU: 0x28BB4, offset: 0x30FC9, size: 0x8, addend: 0x0, symName: __ZN5Eigen8internal47copy_using_evaluator_innervec_CompleteUnrollingINS0_31generic_dense_assignment_kernelINS0_9evaluatorINS_6MatrixIdLi3ELi1ELi0ELi3ELi1EEEEENS3_INS_14CwiseNullaryOpINS0_18scalar_constant_opIdEES5_EEEENS0_13mul_assign_opIddEELi0EEELi0ELi2EE3runERSE_, symObjAddr: 0x9FFC, symBinAddr: 0x100024610, symSize: 0x34 }
  - { offsetInCU: 0x28BD7, offset: 0x30FEC, size: 0x8, addend: 0x0, symName: __ZN5Eigen8internal55copy_using_evaluator_DefaultTraversal_CompleteUnrollingINS0_31generic_dense_assignment_kernelINS0_9evaluatorINS_6MatrixIdLi3ELi1ELi0ELi3ELi1EEEEENS3_INS_14CwiseNullaryOpINS0_18scalar_constant_opIdEES5_EEEENS0_13mul_assign_opIddEELi0EEELi2ELi3EE3runERSE_, symObjAddr: 0xA030, symBinAddr: 0x100024644, symSize: 0x34 }
  - { offsetInCU: 0x28BF9, offset: 0x3100E, size: 0x8, addend: 0x0, symName: __ZN5Eigen8internal31generic_dense_assignment_kernelINS0_9evaluatorINS_6MatrixIdLi3ELi1ELi0ELi3ELi1EEEEENS2_INS_14CwiseNullaryOpINS0_18scalar_constant_opIdEES4_EEEENS0_13mul_assign_opIddEELi0EE24assignPacketByOuterInnerILi0ELi16E19__simd128_float64_tEEvll, symObjAddr: 0xA064, symBinAddr: 0x100024678, symSize: 0x60 }
  - { offsetInCU: 0x28C79, offset: 0x3108E, size: 0x8, addend: 0x0, symName: __ZN5Eigen8internal47copy_using_evaluator_innervec_CompleteUnrollingINS0_31generic_dense_assignment_kernelINS0_9evaluatorINS_6MatrixIdLi3ELi1ELi0ELi3ELi1EEEEENS3_INS_14CwiseNullaryOpINS0_18scalar_constant_opIdEES5_EEEENS0_13mul_assign_opIddEELi0EEELi2ELi2EE3runERSE_, symObjAddr: 0xA0C4, symBinAddr: 0x1000246D8, symSize: 0x10 }
  - { offsetInCU: 0x28C99, offset: 0x310AE, size: 0x8, addend: 0x0, symName: __ZN5Eigen8internal31generic_dense_assignment_kernelINS0_9evaluatorINS_6MatrixIdLi3ELi1ELi0ELi3ELi1EEEEENS2_INS_14CwiseNullaryOpINS0_18scalar_constant_opIdEES4_EEEENS0_13mul_assign_opIddEELi0EE20rowIndexByOuterInnerEll, symObjAddr: 0xA0D4, symBinAddr: 0x1000246E8, symSize: 0x18 }
  - { offsetInCU: 0x28CCC, offset: 0x310E1, size: 0x8, addend: 0x0, symName: __ZN5Eigen8internal31generic_dense_assignment_kernelINS0_9evaluatorINS_6MatrixIdLi3ELi1ELi0ELi3ELi1EEEEENS2_INS_14CwiseNullaryOpINS0_18scalar_constant_opIdEES4_EEEENS0_13mul_assign_opIddEELi0EE20colIndexByOuterInnerEll, symObjAddr: 0xA0EC, symBinAddr: 0x100024700, symSize: 0x18 }
  - { offsetInCU: 0x28CFE, offset: 0x31113, size: 0x8, addend: 0x0, symName: __ZN5Eigen8internal31generic_dense_assignment_kernelINS0_9evaluatorINS_6MatrixIdLi3ELi1ELi0ELi3ELi1EEEEENS2_INS_14CwiseNullaryOpINS0_18scalar_constant_opIdEES4_EEEENS0_13mul_assign_opIddEELi0EE12assignPacketILi0ELi16E19__simd128_float64_tEEvll, symObjAddr: 0xA104, symBinAddr: 0x100024718, symSize: 0x70 }
  - { offsetInCU: 0x28D5F, offset: 0x31174, size: 0x8, addend: 0x0, symName: __ZNK5Eigen8internal13mul_assign_opIddE12assignPacketILi0E19__simd128_float64_tEEvPdRKT0_, symObjAddr: 0xA174, symBinAddr: 0x100024788, symSize: 0x6C }
  - { offsetInCU: 0x28E05, offset: 0x3121A, size: 0x8, addend: 0x0, symName: __ZNK5Eigen8internal9evaluatorINS_14CwiseNullaryOpINS0_18scalar_constant_opIdEENS_6MatrixIdLi3ELi1ELi0ELi3ELi1EEEEEE6packetILi16E19__simd128_float64_tlEET0_T1_SC_, symObjAddr: 0xA1E0, symBinAddr: 0x1000247F4, symSize: 0x3C }
  - { offsetInCU: 0x28E65, offset: 0x3127A, size: 0x8, addend: 0x0, symName: __ZN5Eigen8internal31generic_dense_assignment_kernelINS0_9evaluatorINS_6MatrixIdLi3ELi1ELi0ELi3ELi1EEEEENS2_INS_14CwiseNullaryOpINS0_18scalar_constant_opIdEES4_EEEENS0_13mul_assign_opIddEELi0EE23assignCoeffByOuterInnerEll, symObjAddr: 0xA21C, symBinAddr: 0x100024830, symSize: 0x60 }
  - { offsetInCU: 0x28EC8, offset: 0x312DD, size: 0x8, addend: 0x0, symName: __ZN5Eigen8internal55copy_using_evaluator_DefaultTraversal_CompleteUnrollingINS0_31generic_dense_assignment_kernelINS0_9evaluatorINS_6MatrixIdLi3ELi1ELi0ELi3ELi1EEEEENS3_INS_14CwiseNullaryOpINS0_18scalar_constant_opIdEES5_EEEENS0_13mul_assign_opIddEELi0EEELi3ELi3EE3runERSE_, symObjAddr: 0xA27C, symBinAddr: 0x100024890, symSize: 0x10 }
  - { offsetInCU: 0x28EE6, offset: 0x312FB, size: 0x8, addend: 0x0, symName: __ZN5Eigen8internal31generic_dense_assignment_kernelINS0_9evaluatorINS_6MatrixIdLi3ELi1ELi0ELi3ELi1EEEEENS2_INS_14CwiseNullaryOpINS0_18scalar_constant_opIdEES4_EEEENS0_13mul_assign_opIddEELi0EE11assignCoeffEll, symObjAddr: 0xA28C, symBinAddr: 0x1000248A0, symSize: 0x70 }
  - { offsetInCU: 0x28F2A, offset: 0x3133F, size: 0x8, addend: 0x0, symName: __ZNK5Eigen8internal13mul_assign_opIddE11assignCoeffERdRKd, symObjAddr: 0xA2FC, symBinAddr: 0x100024910, symSize: 0x30 }
  - { offsetInCU: 0x28F6C, offset: 0x31381, size: 0x8, addend: 0x0, symName: __ZNK5Eigen8internal9evaluatorINS_14CwiseNullaryOpINS0_18scalar_constant_opIdEENS_6MatrixIdLi3ELi1ELi0ELi3ELi1EEEEEE5coeffIlEEdT_SA_, symObjAddr: 0xA32C, symBinAddr: 0x100024940, symSize: 0x3C }
  - { offsetInCU: 0x28FBA, offset: 0x313CF, size: 0x8, addend: 0x0, symName: __ZN5Eigen8internal9evaluatorINS_14CwiseNullaryOpINS0_18scalar_constant_opIdEENS_6MatrixIdLi3ELi1ELi0ELi3ELi1EEEEEED2Ev, symObjAddr: 0xA368, symBinAddr: 0x10002497C, symSize: 0x2C }
  - { offsetInCU: 0x28FE6, offset: 0x313FB, size: 0x8, addend: 0x0, symName: __ZN5Eigen9DenseBaseINS_6MatrixIdLi3ELi1ELi0ELi3ELi1EEEE11NullaryExprINS_8internal18scalar_constant_opIdEEEEKNS_14CwiseNullaryOpIT_S2_EEllRKS9_, symObjAddr: 0xA394, symBinAddr: 0x1000249A8, symSize: 0x48 }
  - { offsetInCU: 0x29032, offset: 0x31447, size: 0x8, addend: 0x0, symName: __ZN5Eigen14CwiseNullaryOpINS_8internal18scalar_constant_opIdEENS_6MatrixIdLi3ELi1ELi0ELi3ELi1EEEEC1EllRKS3_, symObjAddr: 0xA3DC, symBinAddr: 0x1000249F0, symSize: 0x44 }
  - { offsetInCU: 0x29086, offset: 0x3149B, size: 0x8, addend: 0x0, symName: __ZN5Eigen14CwiseNullaryOpINS_8internal18scalar_constant_opIdEENS_6MatrixIdLi3ELi1ELi0ELi3ELi1EEEEC2EllRKS3_, symObjAddr: 0xA420, symBinAddr: 0x100024A34, symSize: 0x108 }
  - { offsetInCU: 0x290DA, offset: 0x314EF, size: 0x8, addend: 0x0, symName: __ZN5Eigen10MatrixBaseINS_14CwiseNullaryOpINS_8internal18scalar_constant_opIdEENS_6MatrixIdLi3ELi1ELi0ELi3ELi1EEEEEEC2Ev, symObjAddr: 0xA528, symBinAddr: 0x100024B3C, symSize: 0x2C }
  - { offsetInCU: 0x29105, offset: 0x3151A, size: 0x8, addend: 0x0, symName: __ZN5Eigen9DenseBaseINS_14CwiseNullaryOpINS_8internal18scalar_constant_opIdEENS_6MatrixIdLi3ELi1ELi0ELi3ELi1EEEEEEC2Ev, symObjAddr: 0xA554, symBinAddr: 0x100024B68, symSize: 0x14 }
  - { offsetInCU: 0x2912F, offset: 0x31544, size: 0x8, addend: 0x0, symName: __ZN5Eigen8internal13mul_assign_opIddEC2Ev, symObjAddr: 0xA568, symBinAddr: 0x100024B7C, symSize: 0x14 }
  - { offsetInCU: 0x29158, offset: 0x3156D, size: 0x8, addend: 0x0, symName: __ZN5Eigen6MatrixIdLi3ELi1ELi0ELi3ELi1EEC2Ev, symObjAddr: 0xA57C, symBinAddr: 0x100024B90, symSize: 0x30 }
  - { offsetInCU: 0x29182, offset: 0x31597, size: 0x8, addend: 0x0, symName: __ZNK5Eigen15PlainObjectBaseINS_6MatrixIdLi3ELi1ELi0ELi3ELi1EEEE5coeffEl, symObjAddr: 0xA5AC, symBinAddr: 0x100024BC0, symSize: 0x30 }
  - { offsetInCU: 0x291B6, offset: 0x315CB, size: 0x8, addend: 0x0, symName: __ZN5Eigen15DenseCoeffsBaseINS_6MatrixIiLi2ELi1ELi0ELi2ELi1EEELi1EEixEl, symObjAddr: 0xA5DC, symBinAddr: 0x100024BF0, symSize: 0xA4 }
  - { offsetInCU: 0x291EB, offset: 0x31600, size: 0x8, addend: 0x0, symName: __ZNK5Eigen9EigenBaseINS_6MatrixIiLi2ELi1ELi0ELi2ELi1EEEE4sizeEv, symObjAddr: 0xA680, symBinAddr: 0x100024C94, symSize: 0x44 }
  - { offsetInCU: 0x29211, offset: 0x31626, size: 0x8, addend: 0x0, symName: __ZN5Eigen15DenseCoeffsBaseINS_6MatrixIiLi2ELi1ELi0ELi2ELi1EEELi1EE8coeffRefEl, symObjAddr: 0xA6C4, symBinAddr: 0x100024CD8, symSize: 0x78 }
  - { offsetInCU: 0x29246, offset: 0x3165B, size: 0x8, addend: 0x0, symName: __ZNK5Eigen9EigenBaseINS_6MatrixIiLi2ELi1ELi0ELi2ELi1EEEE4rowsEv, symObjAddr: 0xA73C, symBinAddr: 0x100024D50, symSize: 0x38 }
  - { offsetInCU: 0x2926C, offset: 0x31681, size: 0x8, addend: 0x0, symName: __ZNK5Eigen9EigenBaseINS_6MatrixIiLi2ELi1ELi0ELi2ELi1EEEE4colsEv, symObjAddr: 0xA774, symBinAddr: 0x100024D88, symSize: 0x28 }
  - { offsetInCU: 0x29292, offset: 0x316A7, size: 0x8, addend: 0x0, symName: __ZNK5Eigen9EigenBaseINS_6MatrixIiLi2ELi1ELi0ELi2ELi1EEEE7derivedEv, symObjAddr: 0xA79C, symBinAddr: 0x100024DB0, symSize: 0x14 }
  - { offsetInCU: 0x292B8, offset: 0x316CD, size: 0x8, addend: 0x0, symName: __ZNK5Eigen15PlainObjectBaseINS_6MatrixIiLi2ELi1ELi0ELi2ELi1EEEE4rowsEv, symObjAddr: 0xA7B0, symBinAddr: 0x100024DC4, symSize: 0x20 }
  - { offsetInCU: 0x292DF, offset: 0x316F4, size: 0x8, addend: 0x0, symName: __ZN5Eigen12DenseStorageIiLi2ELi2ELi1ELi0EE4rowsEv, symObjAddr: 0xA7D0, symBinAddr: 0x100024DE4, symSize: 0x8 }
  - { offsetInCU: 0x292F2, offset: 0x31707, size: 0x8, addend: 0x0, symName: __ZNK5Eigen15PlainObjectBaseINS_6MatrixIiLi2ELi1ELi0ELi2ELi1EEEE4colsEv, symObjAddr: 0xA7D8, symBinAddr: 0x100024DEC, symSize: 0x20 }
  - { offsetInCU: 0x29319, offset: 0x3172E, size: 0x8, addend: 0x0, symName: __ZN5Eigen12DenseStorageIiLi2ELi2ELi1ELi0EE4colsEv, symObjAddr: 0xA7F8, symBinAddr: 0x100024E0C, symSize: 0x8 }
  - { offsetInCU: 0x2932C, offset: 0x31741, size: 0x8, addend: 0x0, symName: __ZN5Eigen9EigenBaseINS_6MatrixIiLi2ELi1ELi0ELi2ELi1EEEE7derivedEv, symObjAddr: 0xA800, symBinAddr: 0x100024E14, symSize: 0x14 }
  - { offsetInCU: 0x29352, offset: 0x31767, size: 0x8, addend: 0x0, symName: __ZN5Eigen8internal9evaluatorINS_6MatrixIiLi2ELi1ELi0ELi2ELi1EEEEC1ERKS3_, symObjAddr: 0xA814, symBinAddr: 0x100024E28, symSize: 0x34 }
  - { offsetInCU: 0x2938B, offset: 0x317A0, size: 0x8, addend: 0x0, symName: __ZN5Eigen8internal9evaluatorINS_15PlainObjectBaseINS_6MatrixIiLi2ELi1ELi0ELi2ELi1EEEEEE8coeffRefEl, symObjAddr: 0xA848, symBinAddr: 0x100024E5C, symSize: 0x24 }
  - { offsetInCU: 0x293C0, offset: 0x317D5, size: 0x8, addend: 0x0, symName: __ZN5Eigen8internal9evaluatorINS_6MatrixIiLi2ELi1ELi0ELi2ELi1EEEED1Ev, symObjAddr: 0xA86C, symBinAddr: 0x100024E80, symSize: 0x2C }
  - { offsetInCU: 0x293EC, offset: 0x31801, size: 0x8, addend: 0x0, symName: __ZN5Eigen8internal9evaluatorINS_6MatrixIiLi2ELi1ELi0ELi2ELi1EEEEC2ERKS3_, symObjAddr: 0xA898, symBinAddr: 0x100024EAC, symSize: 0x34 }
  - { offsetInCU: 0x29425, offset: 0x3183A, size: 0x8, addend: 0x0, symName: __ZN5Eigen8internal9evaluatorINS_15PlainObjectBaseINS_6MatrixIiLi2ELi1ELi0ELi2ELi1EEEEEEC2ERKS5_, symObjAddr: 0xA8CC, symBinAddr: 0x100024EE0, symSize: 0x78 }
  - { offsetInCU: 0x2945E, offset: 0x31873, size: 0x8, addend: 0x0, symName: __ZN5Eigen8internal14evaluator_baseINS_6MatrixIiLi2ELi1ELi0ELi2ELi1EEEEC2Ev, symObjAddr: 0xA944, symBinAddr: 0x100024F58, symSize: 0x14 }
  - { offsetInCU: 0x29487, offset: 0x3189C, size: 0x8, addend: 0x0, symName: __ZNK5Eigen15PlainObjectBaseINS_6MatrixIiLi2ELi1ELi0ELi2ELi1EEEE4dataEv, symObjAddr: 0xA958, symBinAddr: 0x100024F6C, symSize: 0x24 }
  - { offsetInCU: 0x294AD, offset: 0x318C2, size: 0x8, addend: 0x0, symName: __ZN5Eigen8internal30plainobjectbase_evaluator_dataIiLi0EEC1EPKil, symObjAddr: 0xA97C, symBinAddr: 0x100024F90, symSize: 0x3C }
  - { offsetInCU: 0x294F4, offset: 0x31909, size: 0x8, addend: 0x0, symName: __ZN5Eigen8internal14evaluator_baseINS_6MatrixIiLi2ELi1ELi0ELi2ELi1EEEED2Ev, symObjAddr: 0xA9B8, symBinAddr: 0x100024FCC, symSize: 0x14 }
  - { offsetInCU: 0x2951D, offset: 0x31932, size: 0x8, addend: 0x0, symName: __ZNK5Eigen12DenseStorageIiLi2ELi2ELi1ELi0EE4dataEv, symObjAddr: 0xA9CC, symBinAddr: 0x100024FE0, symSize: 0x14 }
  - { offsetInCU: 0x29543, offset: 0x31958, size: 0x8, addend: 0x0, symName: __ZN5Eigen8internal30plainobjectbase_evaluator_dataIiLi0EEC2EPKil, symObjAddr: 0xA9E0, symBinAddr: 0x100024FF4, symSize: 0x40 }
  - { offsetInCU: 0x2958A, offset: 0x3199F, size: 0x8, addend: 0x0, symName: __ZN5Eigen8internal9evaluatorINS_6MatrixIiLi2ELi1ELi0ELi2ELi1EEEED2Ev, symObjAddr: 0xAA20, symBinAddr: 0x100025034, symSize: 0x2C }
  - { offsetInCU: 0x295B7, offset: 0x319CC, size: 0x8, addend: 0x0, symName: __ZN5Eigen8internal9evaluatorINS_15PlainObjectBaseINS_6MatrixIiLi2ELi1ELi0ELi2ELi1EEEEEED2Ev, symObjAddr: 0xAA4C, symBinAddr: 0x100025060, symSize: 0x2C }
  - { offsetInCU: 0x295E2, offset: 0x319F7, size: 0x8, addend: 0x0, symName: __ZN5Eigen6MatrixIiLi2ELi1ELi0ELi2ELi1EEC2Ev, symObjAddr: 0xAA78, symBinAddr: 0x10002508C, symSize: 0x30 }
  - { offsetInCU: 0x2960C, offset: 0x31A21, size: 0x8, addend: 0x0, symName: __ZN5Eigen15PlainObjectBaseINS_6MatrixIiLi2ELi1ELi0ELi2ELi1EEEEC2Ev, symObjAddr: 0xAAA8, symBinAddr: 0x1000250BC, symSize: 0x34 }
  - { offsetInCU: 0x29637, offset: 0x31A4C, size: 0x8, addend: 0x0, symName: __ZN5Eigen15PlainObjectBaseINS_6MatrixIiLi2ELi1ELi0ELi2ELi1EEEE22_check_template_paramsEv, symObjAddr: 0xAADC, symBinAddr: 0x1000250F0, symSize: 0x4 }
  - { offsetInCU: 0x2964A, offset: 0x31A5F, size: 0x8, addend: 0x0, symName: __ZN5Eigen10MatrixBaseINS_6MatrixIiLi2ELi1ELi0ELi2ELi1EEEEC2Ev, symObjAddr: 0xAAE0, symBinAddr: 0x1000250F4, symSize: 0x2C }
  - { offsetInCU: 0x29674, offset: 0x31A89, size: 0x8, addend: 0x0, symName: __ZN5Eigen12DenseStorageIiLi2ELi2ELi1ELi0EEC1Ev, symObjAddr: 0xAB0C, symBinAddr: 0x100025120, symSize: 0x2C }
  - { offsetInCU: 0x2969F, offset: 0x31AB4, size: 0x8, addend: 0x0, symName: __ZN5Eigen9DenseBaseINS_6MatrixIiLi2ELi1ELi0ELi2ELi1EEEEC2Ev, symObjAddr: 0xAB38, symBinAddr: 0x10002514C, symSize: 0x14 }
  - { offsetInCU: 0x296C8, offset: 0x31ADD, size: 0x8, addend: 0x0, symName: __ZN5Eigen12DenseStorageIiLi2ELi2ELi1ELi0EEC2Ev, symObjAddr: 0xAB4C, symBinAddr: 0x100025160, symSize: 0x2C }
  - { offsetInCU: 0x296F2, offset: 0x31B07, size: 0x8, addend: 0x0, symName: __ZN5Eigen8internal11plain_arrayIiLi2ELi0ELi0EEC1Ev, symObjAddr: 0xAB78, symBinAddr: 0x10002518C, symSize: 0x2C }
  - { offsetInCU: 0x2971C, offset: 0x31B31, size: 0x8, addend: 0x0, symName: __ZN5Eigen8internal11plain_arrayIiLi2ELi0ELi0EEC2Ev, symObjAddr: 0xABA4, symBinAddr: 0x1000251B8, symSize: 0x2C }
  - { offsetInCU: 0x29746, offset: 0x31B5B, size: 0x8, addend: 0x0, symName: __ZN5Eigen6MatrixIiLi2ELi1ELi0ELi2ELi1EEC2IiiEERKT_RKT0_, symObjAddr: 0xABD4, symBinAddr: 0x1000251E8, symSize: 0x4C }
  - { offsetInCU: 0x297A5, offset: 0x31BBA, size: 0x8, addend: 0x0, symName: __ZN5Eigen15PlainObjectBaseINS_6MatrixIiLi2ELi1ELi0ELi2ELi1EEEE6_init2IiiEEvRKT_RKT0_PNS_8internal9enable_ifILb1ES5_E4typeE, symObjAddr: 0xAC20, symBinAddr: 0x100025234, symSize: 0x68 }
  - { offsetInCU: 0x29806, offset: 0x31C1B, size: 0x8, addend: 0x0, symName: __ZN5Eigen12DenseStorageIiLi2ELi2ELi1ELi0EE4dataEv, symObjAddr: 0xAC88, symBinAddr: 0x10002529C, symSize: 0x14 }
  - { offsetInCU: 0x2982C, offset: 0x31C41, size: 0x8, addend: 0x0, symName: __ZN5Eigen15PlainObjectBaseINS_6MatrixIiLi2ELi1ELi0ELi2ELi1EEEEaSEOS3_, symObjAddr: 0xAC9C, symBinAddr: 0x1000252B0, symSize: 0x3C }
...
